(lp0
S'http://www.clarin.com/politica/Duro-Santiago-Moro-Tinelli-extorsionador_0_1621038093.html'
p1
aS'http://www.clarin.com/extrashow/fama/insolito-Marcelo_Tinelli-se-fue-estudio-pleno-programa-ShowMatch_0_1621037939.html'
p2
aS'http://www.clarin.com/sociedad/Puerta-puerta-ventajas-correo-compra_0_1621038081.html'
p3
aS'http://www.clarin.com/extrashow/fama/Monica-Farro-Riquelme-goleador-cancha_0_1621038070.html'
p4
aS'http://www.clarin.com/mundo/Papa-sufre-caida-misa-Polonia_0_1621637827.html'
p5
aS'http://www.clarin.com/ieco/consumo-inversion-exportaciones-economia-repunta_0_1621038078.html'
p6
aS'http://www.clarin.com/deautos/tecnologia/eficiente-kilometros-equivalente-litro-nafta_0_1621038012.html'
p7
aS'http://www.clarin.com/politica/Lanata-imagen-Cristina-presa-inflexion_0_1621038098.html'
p8
aS'http://www.clarin.com/ieco/economia/Inflacion-dolar-banco-pruebas_0_1621637824.html'
p9
aS'http://www.clarin.com/ciudades/cuadras-Triunvirato-integraran-Fraga-Chacarita_0_1621038026.html'
p10
aS'http://www.clarin.com/politica/Macri-cardiologo-unidad-medica-presidencial_0_1621637845.html?ns_mchannel=ultimas-noticias'
p11
aS'http://www.clarin.com/politica/Stolbizer-Jorge-Macri-Tecnopolis-electoral_0_1621637840.html?ns_mchannel=ultimas-noticias'
p12
aS'http://www.clarin.com/politica/mediodia-jubilados-chequear-corresponde-reajuste_0_1621637834.html?ns_mchannel=ultimas-noticias'
p13
aS'http://www.clarin.com/mundo/refugiado-escapo-Uruguay-aparecio-Venezuela_0_1621637846.html?ns_mchannel=ultimas-noticias'
p14
aS'http://www.clarin.com/mundo/respondio-Trump-discurso-Obama_0_1621637843.html?ns_mchannel=ultimas-noticias'
p15
aS'http://www.clarin.com/mundo/Primer-bano-multitudes-Papa-Polonia_0_1621637839.html?ns_mchannel=ultimas-noticias'
p16
aS'http://www.clarin.com/sociedad/Condenaron-prision-perpetua-hombres-femicidio_0_1621637841.html?ns_mchannel=ultimas-noticias'
p17
aS'http://www.clarin.com/sociedad/Aparecieron-imagenes-vistas-privada-Hitler_0_1621637838.html?ns_mchannel=ultimas-noticias'
p18
aS'http://www.clarin.com/sociedad/policias-bonaerenses-desplazados-violencia-genero_0_1621637837.html?ns_mchannel=ultimas-noticias'
p19
aS'http://www.clarin.com/ciudades/corte-Corrientes-Callao-complica-transito_0_1621637830.html?ns_mchannel=ultimas-noticias'
p20
aS'http://www.clarin.com/deportes/futbol-internacional/Colombia-rinde-nuevo-campeon-America_0_1621637842.html?ns_mchannel=ultimas-noticias'
p21
aS'http://www.clarin.com/deportes/seleccion-nacional/Simeone-silencio-posibilidad-part-time-Seleccion_0_1621637844.html?ns_mchannel=ultimas-noticias'
p22
aS'http://www.clarin.com/deportes/seleccion-nacional/Argentina-ultimo-examen-frente-Mexico_0_1621637828.html?ns_mchannel=ultimas-noticias'
p23
aS'http://www.clarin.com/politica/mediodia-jubilados-chequear-corresponde-reajuste_0_1621637834.html'
p24
aS'http://www.clarin.com/politica/mediodia-jubilados-chequear-corresponde-reajuste_0_1621637834.html#comentarios'
p25
aS'http://www.clarin.com/politica/mediodia-jubilados-chequear-corresponde-reajuste_0_1621637834.html#compartir'
p26
aS'http://www.clarin.com/ieco/consumo-inversion-exportaciones-economia-repunta_0_1621038078.html'
p27
aS'http://www.clarin.com/ieco/consumo-inversion-exportaciones-economia-repunta_0_1621038078.html'
p28
aS'http://www.clarin.com/ieco/consumo-inversion-exportaciones-economia-repunta_0_1621038078.html#comentarios'
p29
aS'http://www.clarin.com/ieco/consumo-inversion-exportaciones-economia-repunta_0_1621038078.html#compartir'
p30
aS'http://www.clarin.com/ieco/economia/Inflacion-dolar-banco-pruebas_0_1621637824.html'
p31
aS'http://www.clarin.com/ieco/economia/Inflacion-dolar-banco-pruebas_0_1621637824.html'
p32
aS'http://www.clarin.com/ieco/economia/Inflacion-dolar-banco-pruebas_0_1621637824.html#comentarios'
p33
aS'http://www.clarin.com/ieco/economia/Inflacion-dolar-banco-pruebas_0_1621637824.html#compartir'
p34
aS'http://www.clarin.com/politica/Lanata-imagen-Cristina-presa-inflexion_0_1621038098.html'
p35
aS'http://www.clarin.com/politica/Lanata-imagen-Cristina-presa-inflexion_0_1621038098.html#comentarios'
p36
aS'http://www.clarin.com/politica/Lanata-imagen-Cristina-presa-inflexion_0_1621038098.html#compartir'
p37
aS'http://www.clarin.com/politica/Lanata-imagen-Cristina-presa-inflexion_0_1621038098.html'
p38
aS'http://www.clarin.com/politica/Reducirian-ciento-custodia-personal-Cristina_0_1621038015.html'
p39
aS'http://www.clarin.com/politica/Reducirian-ciento-custodia-personal-Cristina_0_1621038015.html#comentarios'
p40
aS'http://www.clarin.com/politica/Reducirian-ciento-custodia-personal-Cristina_0_1621038015.html#compartir'
p41
aS'http://www.clarin.com/politica/Reducirian-ciento-custodia-personal-Cristina_0_1621038015.html'
p42
aS'http://www.clarin.com/mundo/Papa-sufre-caida-misa-Polonia_0_1621637827.html'
p43
aS'http://www.clarin.com/mundo/Papa-sufre-caida-misa-Polonia_0_1621637827.html'
p44
aS'http://www.clarin.com/mundo/Papa-sufre-caida-misa-Polonia_0_1621637827.html#comentarios'
p45
aS'http://www.clarin.com/mundo/Papa-sufre-caida-misa-Polonia_0_1621637827.html#compartir'
p46
aS'http://www.clarin.com/mundo/Primer-bano-multitudes-Papa-Polonia_0_1621637839.html'
p47
aS'http://www.clarin.com/mundo/Primer-bano-multitudes-Papa-Polonia_0_1621637839.html'
p48
aS'http://www.clarin.com/mundo/Primer-bano-multitudes-Papa-Polonia_0_1621637839.html#comentarios'
p49
aS'http://www.clarin.com/mundo/Primer-bano-multitudes-Papa-Polonia_0_1621637839.html#compartir'
p50
aS'http://www.clarin.com/politica/Duro-Santiago-Moro-Tinelli-extorsionador_0_1621038093.html'
p51
aS'http://www.clarin.com/politica/Duro-Santiago-Moro-Tinelli-extorsionador_0_1621038093.html'
p52
aS'http://www.clarin.com/politica/Duro-Santiago-Moro-Tinelli-extorsionador_0_1621038093.html#comentarios'
p53
aS'http://www.clarin.com/politica/Duro-Santiago-Moro-Tinelli-extorsionador_0_1621038093.html#compartir'
p54
aS'http://www.clarin.com/politica/Stolbizer-Jorge-Macri-Tecnopolis-electoral_0_1621637840.html'
p55
aS'http://www.clarin.com/politica/Stolbizer-Jorge-Macri-Tecnopolis-electoral_0_1621637840.html'
p56
aS'http://www.clarin.com/politica/Stolbizer-Jorge-Macri-Tecnopolis-electoral_0_1621637840.html#comentarios'
p57
aS'http://www.clarin.com/politica/Stolbizer-Jorge-Macri-Tecnopolis-electoral_0_1621637840.html#compartir'
p58
aS'http://www.clarin.com/politica/Macri-Tinelli-solas-Olivos-sellar_0_1621037953.html'
p59
aS'http://www.clarin.com/politica/Macri-Tinelli-solas-Olivos-sellar_0_1621037953.html#comentarios'
p60
aS'http://www.clarin.com/politica/Macri-Tinelli-solas-Olivos-sellar_0_1621037953.html#compartir'
p61
aS'http://www.clarin.com/politica/Macri-Tinelli-solas-Olivos-sellar_0_1621037953.html'
p62
aS'http://www.clarin.com/politica/Macri-cardiologo-unidad-medica-presidencial_0_1621637845.html'
p63
aS'http://www.clarin.com/politica/Macri-cardiologo-unidad-medica-presidencial_0_1621637845.html#comentarios'
p64
aS'http://www.clarin.com/politica/Macri-cardiologo-unidad-medica-presidencial_0_1621637845.html#compartir'
p65
aS'http://www.clarin.com/politica/Macri-cardiologo-unidad-medica-presidencial_0_1621637845.html'
p66
aS'http://www.clarin.com/mundo/Saldra-libertad-hombre-asesinar-Reagan_0_1621637832.html'
p67
aS'http://www.clarin.com/mundo/Saldra-libertad-hombre-asesinar-Reagan_0_1621637832.html'
p68
aS'http://www.clarin.com/mundo/Saldra-libertad-hombre-asesinar-Reagan_0_1621637832.html#comentarios'
p69
aS'http://www.clarin.com/mundo/Saldra-libertad-hombre-asesinar-Reagan_0_1621637832.html#compartir'
p70
aS'http://www.clarin.com/deportes/futbol-internacional/Atletico-Nacional-Independiente-Vallepor-gloria_0_1621037898.html'
p71
aS'http://www.clarin.com/deportes/futbol-internacional/Atletico-Nacional-Independiente-Vallepor-gloria_0_1621037898.html'
p72
aS'http://www.clarin.com/deportes/futbol-internacional/Atletico-Nacional-Independiente-Vallepor-gloria_0_1621037898.html#comentarios'
p73
aS'http://www.clarin.com/deportes/futbol-internacional/Atletico-Nacional-Independiente-Vallepor-gloria_0_1621037898.html#compartir'
p74
aS'http://www.clarin.com/sociedad/Puerta-puerta-ventajas-correo-compra_0_1621038081.html'
p75
aS'http://www.clarin.com/sociedad/Puerta-puerta-ventajas-correo-compra_0_1621038081.html'
p76
aS'http://www.clarin.com/sociedad/Puerta-puerta-ventajas-correo-compra_0_1621038081.html#comentarios'
p77
aS'http://www.clarin.com/sociedad/Puerta-puerta-ventajas-correo-compra_0_1621038081.html#compartir'
p78
aS'http://www.clarin.com/ciudades/corte-Corrientes-Callao-complica-transito_0_1621637830.html'
p79
aS'http://www.clarin.com/ciudades/corte-Corrientes-Callao-complica-transito_0_1621637830.html#comentarios'
p80
aS'http://www.clarin.com/ciudades/corte-Corrientes-Callao-complica-transito_0_1621637830.html#compartir'
p81
aS'http://www.clarin.com/ciudades/corte-Corrientes-Callao-complica-transito_0_1621637830.html'
p82
aS'http://www.clarin.com/ciudades/cuadras-Triunvirato-integraran-Fraga-Chacarita_0_1621038026.html'
p83
aS'http://www.clarin.com/ciudades/cuadras-Triunvirato-integraran-Fraga-Chacarita_0_1621038026.html#comentarios'
p84
aS'http://www.clarin.com/ciudades/cuadras-Triunvirato-integraran-Fraga-Chacarita_0_1621038026.html#compartir'
p85
aS'http://www.clarin.com/ciudades/cuadras-Triunvirato-integraran-Fraga-Chacarita_0_1621038026.html'
p86
aS'http://www.clarin.com/mundo/respondio-Trump-discurso-Obama_0_1621637843.html'
p87
aS'http://www.clarin.com/mundo/respondio-Trump-discurso-Obama_0_1621637843.html'
p88
aS'http://www.clarin.com/mundo/respondio-Trump-discurso-Obama_0_1621637843.html#comentarios'
p89
aS'http://www.clarin.com/mundo/respondio-Trump-discurso-Obama_0_1621637843.html#compartir'
p90
aS'http://www.clarin.com/sociedad/Aparecieron-imagenes-vistas-privada-Hitler_0_1621637838.html'
p91
aS'http://www.clarin.com/sociedad/Aparecieron-imagenes-vistas-privada-Hitler_0_1621637838.html'
p92
aS'http://www.clarin.com/sociedad/Aparecieron-imagenes-vistas-privada-Hitler_0_1621637838.html#comentarios'
p93
aS'http://www.clarin.com/sociedad/Aparecieron-imagenes-vistas-privada-Hitler_0_1621637838.html#compartir'
p94
aS'http://www.clarin.com/cultura/Llaman-Iran-polemico-Muerte-Unidos_0_1621038060.html'
p95
aS'http://www.clarin.com/cultura/Llaman-Iran-polemico-Muerte-Unidos_0_1621038060.html'
p96
aS'http://www.clarin.com/cultura/Llaman-Iran-polemico-Muerte-Unidos_0_1621038060.html#comentarios'
p97
aS'http://www.clarin.com/cultura/Llaman-Iran-polemico-Muerte-Unidos_0_1621038060.html#compartir'
p98
aS'http://www.clarin.com/sociedad/policias-bonaerenses-desplazados-violencia-genero_0_1621637837.html'
p99
aS'http://www.clarin.com/sociedad/policias-bonaerenses-desplazados-violencia-genero_0_1621637837.html#comentarios'
p100
aS'http://www.clarin.com/sociedad/policias-bonaerenses-desplazados-violencia-genero_0_1621637837.html#compartir'
p101
aS'http://www.clarin.com/sociedad/policias-bonaerenses-desplazados-violencia-genero_0_1621637837.html'
p102
aS'http://www.clarin.com/sociedad/Condenaron-prision-perpetua-hombres-femicidio_0_1621637841.html'
p103
aS'http://www.clarin.com/sociedad/Condenaron-prision-perpetua-hombres-femicidio_0_1621637841.html#comentarios'
p104
aS'http://www.clarin.com/sociedad/Condenaron-prision-perpetua-hombres-femicidio_0_1621637841.html#compartir'
p105
aS'http://www.clarin.com/sociedad/Condenaron-prision-perpetua-hombres-femicidio_0_1621637841.html'
p106
aS'http://www.clarin.com/sociedad/pareja-enfrentaron-hepatitis-lograron-curarse_0_1621038047.html'
p107
aS'http://www.clarin.com/sociedad/pareja-enfrentaron-hepatitis-lograron-curarse_0_1621038047.html#comentarios'
p108
aS'http://www.clarin.com/sociedad/pareja-enfrentaron-hepatitis-lograron-curarse_0_1621038047.html#compartir'
p109
aS'http://www.clarin.com/sociedad/pareja-enfrentaron-hepatitis-lograron-curarse_0_1621038047.html'
p110
aS'http://www.clarin.com/policiales/empresario-creyo-secuestrado-US-rescate_0_1621637831.html'
p111
aS'http://www.clarin.com/policiales/empresario-creyo-secuestrado-US-rescate_0_1621637831.html#comentarios'
p112
aS'http://www.clarin.com/policiales/empresario-creyo-secuestrado-US-rescate_0_1621637831.html#compartir'
p113
aS'http://www.clarin.com/policiales/empresario-creyo-secuestrado-US-rescate_0_1621637831.html'
p114
aS'http://www.clarin.com/mundo/Identifican-segundo-atacante-Francia-fichado_0_1621637836.html'
p115
aS'http://www.clarin.com/mundo/Identifican-segundo-atacante-Francia-fichado_0_1621637836.html#comentarios'
p116
aS'http://www.clarin.com/mundo/Identifican-segundo-atacante-Francia-fichado_0_1621637836.html#compartir'
p117
aS'http://www.clarin.com/mundo/Identifican-segundo-atacante-Francia-fichado_0_1621637836.html'
p118
aS'http://www.clarin.com/mundo/refugiado-escapo-Uruguay-aparecio-Venezuela_0_1621637846.html'
p119
aS'http://www.clarin.com/mundo/refugiado-escapo-Uruguay-aparecio-Venezuela_0_1621637846.html#comentarios'
p120
aS'http://www.clarin.com/mundo/refugiado-escapo-Uruguay-aparecio-Venezuela_0_1621637846.html#compartir'
p121
aS'http://www.clarin.com/mundo/refugiado-escapo-Uruguay-aparecio-Venezuela_0_1621637846.html'
p122
aS'http://www.clarin.com/deportes/seleccion-nacional/Simeone-silencio-posibilidad-part-time-Seleccion_0_1621637844.html'
p123
aS'http://www.clarin.com/deportes/seleccion-nacional/Simeone-silencio-posibilidad-part-time-Seleccion_0_1621637844.html'
p124
aS'http://www.clarin.com/deportes/seleccion-nacional/Simeone-silencio-posibilidad-part-time-Seleccion_0_1621637844.html#comentarios'
p125
aS'http://www.clarin.com/deportes/seleccion-nacional/Simeone-silencio-posibilidad-part-time-Seleccion_0_1621637844.html#compartir'
p126
aS'http://www.clarin.com/deportes/seleccion-nacional/Armando-Perez-Ramon-Diaz-Bianchi_0_1621038054.html'
p127
aS'http://www.clarin.com/deportes/seleccion-nacional/Armando-Perez-Ramon-Diaz-Bianchi_0_1621038054.html'
p128
aS'http://www.clarin.com/deportes/seleccion-nacional/Armando-Perez-Ramon-Diaz-Bianchi_0_1621038054.html#comentarios'
p129
aS'http://www.clarin.com/deportes/seleccion-nacional/Armando-Perez-Ramon-Diaz-Bianchi_0_1621038054.html#compartir'
p130
aS'http://www.clarin.com/juegos-olimpicos-rio-2016/Rio-recibio-figuras-calor-Juegos_0_1621637833.html'
p131
aS'http://www.clarin.com/juegos-olimpicos-rio-2016/Rio-recibio-figuras-calor-Juegos_0_1621637833.html'
p132
aS'http://www.clarin.com/juegos-olimpicos-rio-2016/Rio-recibio-figuras-calor-Juegos_0_1621637833.html#comentarios'
p133
aS'http://www.clarin.com/juegos-olimpicos-rio-2016/Rio-recibio-figuras-calor-Juegos_0_1621637833.html#compartir'
p134
aS'http://www.clarin.comhttp://www.clarin.com/opinion/larga-noche-Universidad_0_1621637823.html'
p135
aS'http://www.clarin.comhttp://www.ieco.clarin.com/economia/Inflacion-dolar-banco-pruebas_0_1621637824.html'
p136
aS'http://www.clarin.comhttp://www.clarin.com/mundo/Mundo-gyerra-conflictos-abismos-punto_0_1621038025.html'
p137
aS'http://www.clarin.comhttp://www.clarin.com/opinion/Pregon-amor-abuela_0_1621038043.html'
p138
aS'http://www.clarin.com/extrashow/fama/Fer_Vazquez-Rombai-ruptura-ShowMatch_0_1621637835.html'
p139
aS'http://www.clarin.com/extrashow/fama/Fer_Vazquez-Rombai-ruptura-ShowMatch_0_1621637835.html'
p140
aS'http://www.clarin.com/extrashow/fama/Fer_Vazquez-Rombai-ruptura-ShowMatch_0_1621637835.html'
p141
aS'http://www.clarin.com/extrashow/fama/Luifa-eliminado-Gran-Hermano_0_1621038097.html'
p142
aS'http://www.clarin.com/extrashow/fama/Luifa-eliminado-Gran-Hermano_0_1621038097.html'
p143
aS'http://www.clarin.com/extrashow/fama/Luifa-eliminado-Gran-Hermano_0_1621038097.html'
p144
aS'http://www.clarin.com/extrashow/fama/Martin-Connor-integrante-Luthiers-infarto_0_1621038066.html'
p145
aS'http://www.clarin.com/extrashow/fama/Martin-Connor-integrante-Luthiers-infarto_0_1621038066.html'
p146
aS'http://www.clarin.com/extrashow/fama/Martin-Connor-integrante-Luthiers-infarto_0_1621038066.html'
p147
aS'http://www.clarin.com/extrashow/fama/Monica-Farro-Riquelme-goleador-cancha_0_1621038070.html'
p148
aS'http://www.clarin.com/extrashow/fama/Monica-Farro-Riquelme-goleador-cancha_0_1621038070.html'
p149
aS'http://www.clarin.com/extrashow/fama/Monica-Farro-Riquelme-goleador-cancha_0_1621038070.html'
p150
aS'http://www.clarin.com/extrashow/Alejandro-Dolina-indignado-personal-seguridad_0_1621038008.html'
p151
aS'http://www.clarin.com/extrashow/Alejandro-Dolina-indignado-personal-seguridad_0_1621038008.html'
p152
aS'http://www.clarin.com/extrashow/Alejandro-Dolina-indignado-personal-seguridad_0_1621038008.html'
p153
aS'http://www.clarin.com/extrashow/fama/insolito-Marcelo_Tinelli-se-fue-estudio-pleno-programa-ShowMatch_0_1621037939.html'
p154
aS'http://www.clarin.com/extrashow/fama/insolito-Marcelo_Tinelli-se-fue-estudio-pleno-programa-ShowMatch_0_1621037939.html'
p155
aS'http://www.clarin.com/extrashow/fama/insolito-Marcelo_Tinelli-se-fue-estudio-pleno-programa-ShowMatch_0_1621037939.html'
p156
aS'http://www.clarin.com/ciudades/paro-hoy-servicio-tren-Sarmiento_0_1621637825.html'
p157
aS'http://www.clarin.com/ciudades/paro-hoy-servicio-tren-Sarmiento_0_1621637825.html#comentarios'
p158
aS'http://www.clarin.com/ciudades/paro-hoy-servicio-tren-Sarmiento_0_1621637825.html#compartir'
p159
aS'http://www.clarin.com/ciudades/paro-hoy-servicio-tren-Sarmiento_0_1621637825.html'
p160
aS'http://www.clarin.com/sociedad/guardias-hospitales-nuevo-refugio-invierno_0_1621038067.html'
p161
aS'http://www.clarin.com/sociedad/guardias-hospitales-nuevo-refugio-invierno_0_1621038067.html'
p162
aS'http://www.clarin.com/sociedad/guardias-hospitales-nuevo-refugio-invierno_0_1621038067.html#comentarios'
p163
aS'http://www.clarin.com/sociedad/guardias-hospitales-nuevo-refugio-invierno_0_1621038067.html#compartir'
p164
aS'http://www.clarin.com/sociedad/Vacaciones-adolescentes-colegio-dias-descanso_0_1621038083.html'
p165
aS'http://www.clarin.com/sociedad/Vacaciones-adolescentes-colegio-dias-descanso_0_1621038083.html'
p166
aS'http://www.clarin.com/sociedad/Vacaciones-adolescentes-colegio-dias-descanso_0_1621038083.html#comentarios'
p167
aS'http://www.clarin.com/sociedad/Vacaciones-adolescentes-colegio-dias-descanso_0_1621038083.html#compartir'
p168
aS'http://www.clarin.com/sociedad/cosas-tenes-saber-Sol-Chicos_0_1621038002.html'
p169
aS'http://www.clarin.com/sociedad/cosas-tenes-saber-Sol-Chicos_0_1621038002.html'
p170
aS'http://www.clarin.com/sociedad/cosas-tenes-saber-Sol-Chicos_0_1621038002.html#comentarios'
p171
aS'http://www.clarin.com/sociedad/cosas-tenes-saber-Sol-Chicos_0_1621038002.html#compartir'
p172
aS'http://www.clarin.com/policiales/peritaje-Mallo-doble-crimen-narco_0_1621038087.html'
p173
aS'http://www.clarin.com/policiales/peritaje-Mallo-doble-crimen-narco_0_1621038087.html'
p174
aS'http://www.clarin.com/policiales/peritaje-Mallo-doble-crimen-narco_0_1621038087.html#comentarios'
p175
aS'http://www.clarin.com/policiales/peritaje-Mallo-doble-crimen-narco_0_1621038087.html#compartir'
p176
aS'http://www.clarin.com/sociedad/UBA-conmemora-Noche-Bastones-Largos_0_1621038086.html'
p177
aS'http://www.clarin.com/sociedad/UBA-conmemora-Noche-Bastones-Largos_0_1621038086.html'
p178
aS'http://www.clarin.com/sociedad/UBA-conmemora-Noche-Bastones-Largos_0_1621038086.html#comentarios'
p179
aS'http://www.clarin.com/sociedad/UBA-conmemora-Noche-Bastones-Largos_0_1621038086.html#compartir'
p180
aS'http://www.clarin.com/deautos/tecnologia/eficiente-kilometros-equivalente-litro-nafta_0_1621038012.html'
p181
aS'http://www.clarin.com/deautos/tecnologia/eficiente-kilometros-equivalente-litro-nafta_0_1621038012.html'
p182
aS'http://www.clarin.com/deautos/tecnologia/eficiente-kilometros-equivalente-litro-nafta_0_1621038012.html#comentarios'
p183
aS'http://www.clarin.com/deautos/tecnologia/eficiente-kilometros-equivalente-litro-nafta_0_1621038012.html#compartir'
p184
aS'http://www.clarin.com/sociedad/Yellow-Submarine-Fragata-Libertad-Liverpool_0_1621038009.html'
p185
aS'http://www.clarin.com/sociedad/Yellow-Submarine-Fragata-Libertad-Liverpool_0_1621038009.html'
p186
aS'http://www.clarin.com/sociedad/Yellow-Submarine-Fragata-Libertad-Liverpool_0_1621038009.html#comentarios'
p187
aS'http://www.clarin.com/sociedad/Yellow-Submarine-Fragata-Libertad-Liverpool_0_1621038009.html#compartir'
p188
aS'http://www.clarin.com/ciudades/Woody-Allen-Buenos-Aires_0_1621038048.html'
p189
aS'http://www.clarin.com/ciudades/Woody-Allen-Buenos-Aires_0_1621038048.html'
p190
aS'http://www.clarin.com/ciudades/Woody-Allen-Buenos-Aires_0_1621038048.html#comentarios'
p191
aS'http://www.clarin.com/ciudades/Woody-Allen-Buenos-Aires_0_1621038048.html#compartir'
p192
aS'http://www.clarin.com/entremujeres/hogar-y-familia/embarazo/mitos-pastillas-anticonceptivas_0_1619238104.html'
p193
aS'http://www.clarin.com/entremujeres/hogar-y-familia/embarazo/mitos-pastillas-anticonceptivas_0_1619238104.html'
p194
aS'http://www.clarin.com/entremujeres/hogar-y-familia/embarazo/mitos-pastillas-anticonceptivas_0_1619238104.html#comentarios'
p195
aS'http://www.clarin.com/entremujeres/hogar-y-familia/embarazo/mitos-pastillas-anticonceptivas_0_1619238104.html#compartir'
p196
aS'http://www.clarin.com/buena-vida/ser-zen/Cambio-personal-siempre-adentro-afuera_0_1621037989.html'
p197
aS'http://www.clarin.com/buena-vida/ser-zen/Cambio-personal-siempre-adentro-afuera_0_1621037989.html'
p198
aS'http://www.clarin.com/buena-vida/ser-zen/Cambio-personal-siempre-adentro-afuera_0_1621037989.html#comentarios'
p199
aS'http://www.clarin.com/buena-vida/ser-zen/Cambio-personal-siempre-adentro-afuera_0_1621037989.html#compartir'
p200
aS'http://www.clarin.com/todoviajes/destinos/america-del-norte/Museo-Bellas-Artes-valioso-Boston_0_1620438033.html'
p201
aS'http://www.clarin.com/todoviajes/destinos/america-del-norte/Museo-Bellas-Artes-valioso-Boston_0_1620438033.html'
p202
aS'http://www.clarin.com/todoviajes/destinos/america-del-norte/Museo-Bellas-Artes-valioso-Boston_0_1620438033.html#comentarios'
p203
aS'http://www.clarin.com/todoviajes/destinos/america-del-norte/Museo-Bellas-Artes-valioso-Boston_0_1620438033.html#compartir'
p204
aS'http://www.clarin.com/todoviajes/destinos/propuestas-turistas-Madre-ciudades-Argentina_0_1620438051.html'
p205
aS'http://www.clarin.com/todoviajes/destinos/propuestas-turistas-Madre-ciudades-Argentina_0_1620438051.html'
p206
aS'http://www.clarin.com/todoviajes/destinos/propuestas-turistas-Madre-ciudades-Argentina_0_1620438051.html#comentarios'
p207
aS'http://www.clarin.com/todoviajes/destinos/propuestas-turistas-Madre-ciudades-Argentina_0_1620438051.html#compartir'
p208
aS'http://www.clarin.com/politica/PAMI-Gobierno-avanza-datos-personales_0_1621038073.html'
p209
aS'http://www.clarin.com/politica/PAMI-Gobierno-avanza-datos-personales_0_1621038073.html#comentarios'
p210
aS'http://www.clarin.com/politica/PAMI-Gobierno-avanza-datos-personales_0_1621038073.html#compartir'
p211
aS'http://www.clarin.com/politica/Amplian-denuncia-Gobierno-datos-personales_0_1621038035.html'
p212
aS'http://www.clarin.com/politica/Amplian-denuncia-Gobierno-datos-personales_0_1621038035.html#comentarios'
p213
aS'http://www.clarin.com/politica/Amplian-denuncia-Gobierno-datos-personales_0_1621038035.html#compartir'
p214
aS'http://www.clarin.com/politica/Amplian-denuncia-Gobierno-datos-personales_0_1621038035.html'
p215
aS'http://www.clarin.com/politica/Cristina-acuso-Gobierno-policial-ANSES_0_1621037966.html'
p216
aS'http://www.clarin.com/politica/Cristina-acuso-Gobierno-policial-ANSES_0_1621037966.html#comentarios'
p217
aS'http://www.clarin.com/politica/Cristina-acuso-Gobierno-policial-ANSES_0_1621037966.html#compartir'
p218
aS'http://www.clarin.com/politica/Cristina-acuso-Gobierno-policial-ANSES_0_1621037966.html'
p219
aS'http://www.clarin.com/politica/CFK-directorio-Banco-Santa-Cruz_0_1621037931.html'
p220
aS'http://www.clarin.com/politica/CFK-directorio-Banco-Santa-Cruz_0_1621037931.html'
p221
aS'http://www.clarin.com/politica/CFK-directorio-Banco-Santa-Cruz_0_1621037931.html#comentarios'
p222
aS'http://www.clarin.com/politica/CFK-directorio-Banco-Santa-Cruz_0_1621037931.html#compartir'
p223
aS'http://www.clarin.com/politica/Boudou-visitar-Milagro-Sala-carcel_0_1621038064.html'
p224
aS'http://www.clarin.com/politica/Boudou-visitar-Milagro-Sala-carcel_0_1621038064.html'
p225
aS'http://www.clarin.com/politica/Boudou-visitar-Milagro-Sala-carcel_0_1621038064.html#comentarios'
p226
aS'http://www.clarin.com/politica/Boudou-visitar-Milagro-Sala-carcel_0_1621038064.html#compartir'
p227
aS'http://www.clarin.com/politica/Milagro-Sala-millones-pesos-termino_0_1620438083.html'
p228
aS'http://www.clarin.com/politica/Milagro-Sala-millones-pesos-termino_0_1620438083.html'
p229
aS'http://www.clarin.com/politica/Milagro-Sala-millones-pesos-termino_0_1620438083.html#comentarios'
p230
aS'http://www.clarin.com/politica/Milagro-Sala-millones-pesos-termino_0_1620438083.html#compartir'
p231
aS'http://www.clarin.com/politica/Macri-recibira-presidente-Mexico-comercio_0_1621038040.html'
p232
aS'http://www.clarin.com/politica/Macri-recibira-presidente-Mexico-comercio_0_1621038040.html'
p233
aS'http://www.clarin.com/politica/Macri-recibira-presidente-Mexico-comercio_0_1621038040.html#comentarios'
p234
aS'http://www.clarin.com/politica/Macri-recibira-presidente-Mexico-comercio_0_1621038040.html#compartir'
p235
aS'http://www.clarin.com/ieco/economia/Multas-LATAM-sospechan-coimas-sindicalistas_0_1621037948.html'
p236
aS'http://www.clarin.com/ieco/economia/Multas-LATAM-sospechan-coimas-sindicalistas_0_1621037948.html'
p237
aS'http://www.clarin.com/ieco/economia/Multas-LATAM-sospechan-coimas-sindicalistas_0_1621037948.html#comentarios'
p238
aS'http://www.clarin.com/ieco/economia/Multas-LATAM-sospechan-coimas-sindicalistas_0_1621037948.html#compartir'
p239
aS'http://www.clarin.com/politica/Vidal-reunio-Carrio-mantendra-Bonaerense_0_1621038092.html'
p240
aS'http://www.clarin.com/politica/Vidal-reunio-Carrio-mantendra-Bonaerense_0_1621038092.html#comentarios'
p241
aS'http://www.clarin.com/politica/Vidal-reunio-Carrio-mantendra-Bonaerense_0_1621038092.html#compartir'
p242
aS'http://www.clarin.com/politica/Vidal-reunio-Carrio-mantendra-Bonaerense_0_1621038092.html'
p243
aS'http://www.clarin.com/politica/alerta-terrorismo-desplazan-jefe-AFI_0_1621038032.html'
p244
aS'http://www.clarin.com/politica/alerta-terrorismo-desplazan-jefe-AFI_0_1621038032.html#comentarios'
p245
aS'http://www.clarin.com/politica/alerta-terrorismo-desplazan-jefe-AFI_0_1621038032.html#compartir'
p246
aS'http://www.clarin.com/politica/alerta-terrorismo-desplazan-jefe-AFI_0_1621038032.html'
p247
aS'http://www.clarin.com/politica/susto-desmayo-Binner-mesas-Rural_0_1621038080.html'
p248
aS'http://www.clarin.com/politica/susto-desmayo-Binner-mesas-Rural_0_1621038080.html'
p249
aS'http://www.clarin.com/politica/susto-desmayo-Binner-mesas-Rural_0_1621038080.html#comentarios'
p250
aS'http://www.clarin.com/politica/susto-desmayo-Binner-mesas-Rural_0_1621038080.html#compartir'
p251
aS'http://www.clarin.com/mundo/primeras-imagenes-autor-masacre-Japon_0_1621037978.html'
p252
aS'http://www.clarin.com/mundo/primeras-imagenes-autor-masacre-Japon_0_1621037978.html'
p253
aS'http://www.clarin.com/mundo/primeras-imagenes-autor-masacre-Japon_0_1621037978.html#comentarios'
p254
aS'http://www.clarin.com/mundo/primeras-imagenes-autor-masacre-Japon_0_1621037978.html#compartir'
p255
aS'http://www.clarin.com/mundo/Venezuela-detenciones-arbitrarias-torturas-prision_0_1621038056.html'
p256
aS'http://www.clarin.com/mundo/Venezuela-detenciones-arbitrarias-torturas-prision_0_1621038056.html'
p257
aS'http://www.clarin.com/mundo/Venezuela-detenciones-arbitrarias-torturas-prision_0_1621038056.html#comentarios'
p258
aS'http://www.clarin.com/mundo/Venezuela-detenciones-arbitrarias-torturas-prision_0_1621038056.html#compartir'
p259
aS'http://www.clarin.com/ieco/economia/Toros-campeones-precios-record-Rural_0_1621038038.html'
p260
aS'http://www.clarin.com/ieco/economia/Toros-campeones-precios-record-Rural_0_1621038038.html'
p261
aS'http://www.clarin.com/ieco/economia/Toros-campeones-precios-record-Rural_0_1621038038.html#comentarios'
p262
aS'http://www.clarin.com/ieco/economia/Toros-campeones-precios-record-Rural_0_1621038038.html#compartir'
p263
aS'http://www.clarin.com/ieco/textiles-alerta-consumo-importaciones_0_1621037941.html'
p264
aS'http://www.clarin.com/ieco/textiles-alerta-consumo-importaciones_0_1621037941.html#comentarios'
p265
aS'http://www.clarin.com/ieco/textiles-alerta-consumo-importaciones_0_1621037941.html#compartir'
p266
aS'http://www.clarin.com/ieco/textiles-alerta-consumo-importaciones_0_1621037941.html'
p267
aS'http://www.clarin.com/ieco/economia/Mindlin-historica-Goyo-Perez-Companc_0_1621038052.html'
p268
aS'http://www.clarin.com/ieco/economia/Mindlin-historica-Goyo-Perez-Companc_0_1621038052.html#comentarios'
p269
aS'http://www.clarin.com/ieco/economia/Mindlin-historica-Goyo-Perez-Companc_0_1621038052.html#compartir'
p270
aS'http://www.clarin.com/ieco/economia/Mindlin-historica-Goyo-Perez-Companc_0_1621038052.html'
p271
aS'http://www.clarin.com/deportes/seleccion-nacional/Argentina-ultimo-examen-frente-Mexico_0_1621637828.html'
p272
aS'http://www.clarin.com/deportes/seleccion-nacional/Argentina-ultimo-examen-frente-Mexico_0_1621637828.html'
p273
aS'http://www.clarin.com/deportes/seleccion-nacional/Argentina-ultimo-examen-frente-Mexico_0_1621637828.html#comentarios'
p274
aS'http://www.clarin.com/deportes/seleccion-nacional/Argentina-ultimo-examen-frente-Mexico_0_1621637828.html#compartir'
p275
aS'http://www.clarin.com/deportes/basquet/Argentina-recupero-victoria-doble-suplementario_0_1621038096.html'
p276
aS'http://www.clarin.com/deportes/basquet/Argentina-recupero-victoria-doble-suplementario_0_1621038096.html'
p277
aS'http://www.clarin.com/deportes/basquet/Argentina-recupero-victoria-doble-suplementario_0_1621038096.html#comentarios'
p278
aS'http://www.clarin.com/deportes/basquet/Argentina-recupero-victoria-doble-suplementario_0_1621038096.html#compartir'
p279
aS'http://www.clarin.com/deportes/futbol/belgrano/Belgrano-obtuvo-clasificacion-tiempo-descuento_0_1621038094.html'
p280
aS'http://www.clarin.com/deportes/futbol/belgrano/Belgrano-obtuvo-clasificacion-tiempo-descuento_0_1621038094.html'
p281
aS'http://www.clarin.com/deportes/futbol/belgrano/Belgrano-obtuvo-clasificacion-tiempo-descuento_0_1621038094.html#comentarios'
p282
aS'http://www.clarin.com/deportes/futbol/belgrano/Belgrano-obtuvo-clasificacion-tiempo-descuento_0_1621038094.html#compartir'
p283
aS'http://www.clarin.com/deportes/futbol/Angelici-Orion-jugador-Boca-analizaremos_0_1621038028.html'
p284
aS'http://www.clarin.com/deportes/futbol/Angelici-Orion-jugador-Boca-analizaremos_0_1621038028.html'
p285
aS'http://www.clarin.com/deportes/futbol/Angelici-Orion-jugador-Boca-analizaremos_0_1621038028.html#comentarios'
p286
aS'http://www.clarin.com/deportes/futbol/Angelici-Orion-jugador-Boca-analizaremos_0_1621038028.html#compartir'
p287
aS'http://www.clarin.com/deportes/futbol-internacional/Aguero-lupa-Guardiola-condicion-fisica_0_1621038013.html'
p288
aS'http://www.clarin.com/deportes/futbol-internacional/Aguero-lupa-Guardiola-condicion-fisica_0_1621038013.html'
p289
aS'http://www.clarin.com/deportes/futbol-internacional/Aguero-lupa-Guardiola-condicion-fisica_0_1621038013.html#comentarios'
p290
aS'http://www.clarin.com/deportes/futbol-internacional/Aguero-lupa-Guardiola-condicion-fisica_0_1621038013.html#compartir'
p291
aS'http://www.clarin.com/deportes/futbol/Mercado-Coloccini-Lorenzo-Suarez-Belgrano_0_1608439307.html'
p292
aS'http://www.clarin.com/deportes/futbol/Mercado-Coloccini-Lorenzo-Suarez-Belgrano_0_1608439307.html'
p293
aS'http://www.clarin.com/deportes/futbol/Mercado-Coloccini-Lorenzo-Suarez-Belgrano_0_1608439307.html#comentarios'
p294
aS'http://www.clarin.com/deportes/futbol/Mercado-Coloccini-Lorenzo-Suarez-Belgrano_0_1608439307.html#compartir'
p295
aS'http://www.clarin.com/deportes/futbol-internacional/Laurentiis-presidente-pelicula_0_1621038017.html'
p296
aS'http://www.clarin.com/deportes/futbol-internacional/Laurentiis-presidente-pelicula_0_1621038017.html'
p297
aS'http://www.clarin.com/deportes/futbol-internacional/Laurentiis-presidente-pelicula_0_1621038017.html#comentarios'
p298
aS'http://www.clarin.com/deportes/futbol-internacional/Laurentiis-presidente-pelicula_0_1621038017.html#compartir'
p299
aS'http://www.clarin.com/deportes/futbol/boca-juniors/Tevez-critico-dirigencia-Boca-quiera_0_1621037998.html'
p300
aS'http://www.clarin.com/deportes/futbol/boca-juniors/Tevez-critico-dirigencia-Boca-quiera_0_1621037998.html'
p301
aS'http://www.clarin.com/deportes/futbol/boca-juniors/Tevez-critico-dirigencia-Boca-quiera_0_1621037998.html#comentarios'
p302
aS'http://www.clarin.com/deportes/futbol/boca-juniors/Tevez-critico-dirigencia-Boca-quiera_0_1621037998.html#compartir'
p303
aS'http://www.clarin.com/deportes/futbol-internacional/Mascherano-acordo-renovacion-Barcelona_0_1621037908.html'
p304
aS'http://www.clarin.com/deportes/futbol-internacional/Mascherano-acordo-renovacion-Barcelona_0_1621037908.html#comentarios'
p305
aS'http://www.clarin.com/deportes/futbol-internacional/Mascherano-acordo-renovacion-Barcelona_0_1621037908.html#compartir'
p306
aS'http://www.clarin.com/deportes/futbol-internacional/Mascherano-acordo-renovacion-Barcelona_0_1621037908.html'
p307
aS'http://www.clarin.com/deportes/futbol-internacional/argentinos-candidatos-mejor-temporada-Europa_0_1621037940.html'
p308
aS'http://www.clarin.com/deportes/futbol-internacional/argentinos-candidatos-mejor-temporada-Europa_0_1621037940.html'
p309
aS'http://www.clarin.com/deportes/futbol-internacional/argentinos-candidatos-mejor-temporada-Europa_0_1621037940.html#comentarios'
p310
aS'http://www.clarin.com/deportes/futbol-internacional/argentinos-candidatos-mejor-temporada-Europa_0_1621037940.html#compartir'
p311
aS'http://www.clarin.com/deportes/futbol-internacional/presidente-Napoli-dijo-Higuain-traicion_0_1621037938.html'
p312
aS'http://www.clarin.com/deportes/futbol-internacional/presidente-Napoli-dijo-Higuain-traicion_0_1621037938.html#comentarios'
p313
aS'http://www.clarin.com/deportes/futbol-internacional/presidente-Napoli-dijo-Higuain-traicion_0_1621037938.html#compartir'
p314
aS'http://www.clarin.com/deportes/futbol-internacional/presidente-Napoli-dijo-Higuain-traicion_0_1621037938.html'
p315
aS'http://www.clarin.com/deportes/futbol/river-plate/River-llega-afilado-Copa-Argentina_0_1621037957.html'
p316
aS'http://www.clarin.com/deportes/futbol/river-plate/River-llega-afilado-Copa-Argentina_0_1621037957.html#comentarios'
p317
aS'http://www.clarin.com/deportes/futbol/river-plate/River-llega-afilado-Copa-Argentina_0_1621037957.html#compartir'
p318
aS'http://www.clarin.com/deportes/futbol/river-plate/River-llega-afilado-Copa-Argentina_0_1621037957.html'
p319
aS'http://www.clarin.com/politica/Duro-Santiago-Moro-Tinelli-extorsionador_0_1621038093.html'
p320
aS'http://www.clarin.com/extrashow/fama/insolito-Marcelo_Tinelli-se-fue-estudio-pleno-programa-ShowMatch_0_1621037939.html'
p321
aS'http://www.clarin.com/sociedad/Puerta-puerta-ventajas-correo-compra_0_1621038081.html'
p322
aS'http://www.clarin.com/extrashow/fama/Monica-Farro-Riquelme-goleador-cancha_0_1621038070.html'
p323
aS'http://www.clarin.com/mundo/Papa-sufre-caida-misa-Polonia_0_1621637827.html'
p324
aS'http://www.clarin.com/entremujeres/pareja-y-sexo/sexo/puede-tener-orgasmo-estimulacion-genital_0_1621037935.html'
p325
aS'http://www.clarin.com/entremujeres/pareja-y-sexo/sexo/puede-tener-orgasmo-estimulacion-genital_0_1621037935.html'
p326
aS'http://www.clarin.com/entremujeres/pareja-y-sexo/sexo/puede-tener-orgasmo-estimulacion-genital_0_1621037935.html'
p327
aS'http://www.clarin.com/entremujeres/vida-sana/bienestar/reflexologia-sirve_0_1619838091.html'
p328
aS'http://www.clarin.com/entremujeres/vida-sana/bienestar/reflexologia-sirve_0_1619838091.html'
p329
aS'http://www.clarin.com/entremujeres/vida-sana/bienestar/reflexologia-sirve_0_1619838091.html'
p330
aS'http://www.clarin.com/entremujeres/hogar-y-familia/embarazo/nacimiento_parto_embarazo_cesarea_0_1588641246.html'
p331
aS'http://www.clarin.com/entremujeres/hogar-y-familia/embarazo/nacimiento_parto_embarazo_cesarea_0_1588641246.html'
p332
aS'http://www.clarin.com/entremujeres/hogar-y-familia/embarazo/nacimiento_parto_embarazo_cesarea_0_1588641246.html'
p333
aS'http://www.clarin.com/buena-vida/sexo/sirve-famoso-alargamiento-pene_0_1620437984.html'
p334
aS'http://www.clarin.com/buena-vida/sexo/sirve-famoso-alargamiento-pene_0_1620437984.html'
p335
aS'http://www.clarin.com/buena-vida/sexo/sirve-famoso-alargamiento-pene_0_1620437984.html'
p336
aS'http://www.clarin.com/buena-vida/fitness/entrenar_0_1616838394.html'
p337
aS'http://www.clarin.com/buena-vida/fitness/entrenar_0_1616838394.html'
p338
aS'http://www.clarin.com/buena-vida/fitness/entrenar_0_1616838394.html'
p339
aS'http://www.clarin.comhttp://www.clarin.com/cultura/libros-leer-guia-exitoso-booktuber_0_1616238502.html'
p340
aS'http://www.clarin.comhttp://www.clarin.com/cultura/libros-leer-guia-exitoso-booktuber_0_1616238502.html'
p341
aS'http://www.clarin.comhttp://www.clarin.com/cultura/libros-leer-guia-exitoso-booktuber_0_1616238502.html'
p342
aS'http://www.clarin.comhttp://www.clarin.com/br/Buenos-aires-maos-vaca_0_1618038351.html'
p343
aS'http://www.clarin.comhttp://www.clarin.com/br/Buenos-aires-maos-vaca_0_1618038351.html'
p344
aS'http://www.clarin.comhttp://www.clarin.com/br/Buenos-aires-maos-vaca_0_1618038351.html'
p345
aS'http://www.clarin.com/arq/construccion/sumar-aislacion-paredes_0_1620438048.html'
p346
aS'http://www.clarin.com/arq/construccion/sumar-aislacion-paredes_0_1620438048.html'
p347
aS'http://www.clarin.com/arq/construccion/sumar-aislacion-paredes_0_1620438048.html'
p348
a.