(lp0
S'http://www.clarin.com/extrashow/fama/insolito-Marcelo_Tinelli-se-fue-estudio-pleno-programa-ShowMatch_0_1621037939.html'
p1
aS'http://www.clarin.com/sociedad/Salven-Marina-Joyce-youtuber-insolita_0_1621037921.html'
p2
aS'http://www.clarin.com/extrashow/Alejandro-Dolina-indignado-personal-seguridad_0_1621038008.html'
p3
aS'http://www.clarin.com/sociedad/escracharon-acosar-chica-tren-victima_0_1621037972.html'
p4
aS'http://www.clarin.com/extrashow/fama/Riquelme-Rial-Laurita_Fernandez-desmentida_0_1621037975.html'
p5
aS'http://www.clarin.com/extrashow/fama/Jorge_Rial-sin-filtro-contra-Mauricio_Macri-Marcelo_Tinelli_0_1621037988.html'
p6
aS'http://www.clarin.com/sociedad/compras-puerta_0_1621037970.html'
p7
aS'http://www.clarin.com/deautos/tecnologia/eficiente-kilometros-equivalente-litro-nafta_0_1621038012.html'
p8
aS'http://www.clarin.com/politica/Macri-Tinelli-solas-Olivos-sellar_0_1621037953.html'
p9
aS'http://www.clarin.com/especiales/Towle-secreto-confesion-liberar-inocente_0_1621037890.html'
p10
aS'http://www.clarin.com/politica/susto-desmayo-Binner-mesas-Rural_0_1621038080.html?ns_mchannel=ultimas-noticias'
p11
aS'http://www.clarin.com/politica/Avanza-Provincia-nueva-reforma-judicial_0_1621038079.html?ns_mchannel=ultimas-noticias'
p12
aS'http://www.clarin.com/politica/Arranca-blanqueo-pago-jubilados-reglamentan_0_1621038077.html?ns_mchannel=ultimas-noticias'
p13
aS'http://www.clarin.com/mundo/Ahora-Trump-Rusia-espiar-correos_0_1621038072.html?ns_mchannel=ultimas-noticias'
p14
aS'http://www.clarin.com/mundo/Homenaje-Notre-Dame-asesinado-ISIS_0_1621038069.html?ns_mchannel=ultimas-noticias'
p15
aS'http://www.clarin.com/mundo/presidente-turco-cierra-medios-comunicacion_0_1621038061.html?ns_mchannel=ultimas-noticias'
p16
aS'http://www.clarin.com/sociedad/epopeya-trunca-ahora-debieramos-recrear_0_1621038084.html?ns_mchannel=ultimas-noticias'
p17
aS'http://www.clarin.com/sociedad/Vacaciones-adolescentes-colegio-dias-descanso_0_1621038083.html?ns_mchannel=ultimas-noticias'
p18
aS'http://www.clarin.com/ciudades/cuadras-Triunvirato-integraran-Fraga-Chacarita_0_1621038026.html?ns_mchannel=ultimas-noticias'
p19
aS'http://www.clarin.com/ciudades/Woody-Allen-Buenos-Aires_0_1621038048.html?ns_mchannel=ultimas-noticias'
p20
aS'http://www.clarin.com/deportes/seleccion-nacional/Armando-Perez-Ramon-Diaz-Bianchi_0_1621038054.html?ns_mchannel=ultimas-noticias'
p21
aS'http://www.clarin.com/ieco/economia/OMC-China-lejos-economia-mercado_0_1621038075.html?ns_mchannel=ultimas-noticias'
p22
aS'http://www.clarin.com/politica/Secuestran-hermana-Alba-principio-declarar_0_1621038005.html'
p23
aS'http://www.clarin.com/politica/Secuestran-hermana-Alba-principio-declarar_0_1621038005.html#comentarios'
p24
aS'http://www.clarin.com/politica/Secuestran-hermana-Alba-principio-declarar_0_1621038005.html#compartir'
p25
aS'http://www.clarin.com/politica/Secuestran-hermana-Alba-principio-declarar_0_1621038005.html'
p26
aS'http://www.clarin.com/politica/Diputados-funcionarios-Gobierno-utilizacion-Anses_0_1621037968.html'
p27
aS'http://www.clarin.com/politica/Diputados-funcionarios-Gobierno-utilizacion-Anses_0_1621037968.html#comentarios'
p28
aS'http://www.clarin.com/politica/Diputados-funcionarios-Gobierno-utilizacion-Anses_0_1621037968.html#compartir'
p29
aS'http://www.clarin.com/politica/Diputados-funcionarios-Gobierno-utilizacion-Anses_0_1621037968.html'
p30
aS'http://www.clarin.com/politica/Amplian-denuncia-Gobierno-datos-personales_0_1621038035.html'
p31
aS'http://www.clarin.com/politica/Amplian-denuncia-Gobierno-datos-personales_0_1621038035.html#comentarios'
p32
aS'http://www.clarin.com/politica/Amplian-denuncia-Gobierno-datos-personales_0_1621038035.html#compartir'
p33
aS'http://www.clarin.com/politica/Amplian-denuncia-Gobierno-datos-personales_0_1621038035.html'
p34
aS'http://www.clarin.com/politica/Boudou-visitar-Milagro-Sala-carcel_0_1621038064.html'
p35
aS'http://www.clarin.com/politica/Boudou-visitar-Milagro-Sala-carcel_0_1621038064.html'
p36
aS'http://www.clarin.com/politica/Boudou-visitar-Milagro-Sala-carcel_0_1621038064.html#comentarios'
p37
aS'http://www.clarin.com/politica/Boudou-visitar-Milagro-Sala-carcel_0_1621038064.html#compartir'
p38
aS'http://www.clarin.com/deportes/seleccion-nacional/Armando-Perez-Ramon-Diaz-Bianchi_0_1621038054.html'
p39
aS'http://www.clarin.com/deportes/seleccion-nacional/Armando-Perez-Ramon-Diaz-Bianchi_0_1621038054.html'
p40
aS'http://www.clarin.com/deportes/seleccion-nacional/Armando-Perez-Ramon-Diaz-Bianchi_0_1621038054.html#comentarios'
p41
aS'http://www.clarin.com/deportes/seleccion-nacional/Armando-Perez-Ramon-Diaz-Bianchi_0_1621038054.html#compartir'
p42
aS'http://www.clarin.com/deportes/futbol-internacional/Atletico-Nacional-Independiente-Vallepor-gloria_0_1621037898.html'
p43
aS'http://www.clarin.com/deportes/futbol-internacional/Atletico-Nacional-Independiente-Vallepor-gloria_0_1621037898.html'
p44
aS'http://www.clarin.com/deportes/futbol-internacional/Atletico-Nacional-Independiente-Vallepor-gloria_0_1621037898.html#comentarios'
p45
aS'http://www.clarin.com/deportes/futbol-internacional/Atletico-Nacional-Independiente-Vallepor-gloria_0_1621037898.html#compartir'
p46
aS'http://www.clarin.com/sociedad/escracharon-acosar-chica-tren-victima_0_1621037972.html'
p47
aS'http://www.clarin.com/sociedad/escracharon-acosar-chica-tren-victima_0_1621037972.html#comentarios'
p48
aS'http://www.clarin.com/sociedad/escracharon-acosar-chica-tren-victima_0_1621037972.html#compartir'
p49
aS'http://www.clarin.com/sociedad/escracharon-acosar-chica-tren-victima_0_1621037972.html'
p50
aS'http://www.clarin.com/sociedad/denunciar-hombre-escracho-supuesto-abusador_0_1621037999.html'
p51
aS'http://www.clarin.com/sociedad/denunciar-hombre-escracho-supuesto-abusador_0_1621037999.html#comentarios'
p52
aS'http://www.clarin.com/sociedad/denunciar-hombre-escracho-supuesto-abusador_0_1621037999.html#compartir'
p53
aS'http://www.clarin.com/sociedad/denunciar-hombre-escracho-supuesto-abusador_0_1621037999.html'
p54
aS'http://www.clarin.com/politica/Milagro-Sala-millones-pesos-termino_0_1620438083.html'
p55
aS'http://www.clarin.com/politica/Milagro-Sala-millones-pesos-termino_0_1620438083.html'
p56
aS'http://www.clarin.com/politica/Milagro-Sala-millones-pesos-termino_0_1620438083.html#comentarios'
p57
aS'http://www.clarin.com/politica/Milagro-Sala-millones-pesos-termino_0_1620438083.html#compartir'
p58
aS'http://www.clarin.com/politica/Cristina-Capital-homenajear-Hugo-Chavez_0_1621038045.html'
p59
aS'http://www.clarin.com/politica/Cristina-Capital-homenajear-Hugo-Chavez_0_1621038045.html#comentarios'
p60
aS'http://www.clarin.com/politica/Cristina-Capital-homenajear-Hugo-Chavez_0_1621038045.html#compartir'
p61
aS'http://www.clarin.com/politica/Cristina-Capital-homenajear-Hugo-Chavez_0_1621038045.html'
p62
aS'http://www.clarin.com/politica/Jose-Lopez-revela-vinculos-Iglesia_0_1621037924.html'
p63
aS'http://www.clarin.com/politica/Jose-Lopez-revela-vinculos-Iglesia_0_1621037924.html#comentarios'
p64
aS'http://www.clarin.com/politica/Jose-Lopez-revela-vinculos-Iglesia_0_1621037924.html#compartir'
p65
aS'http://www.clarin.com/politica/Jose-Lopez-revela-vinculos-Iglesia_0_1621037924.html'
p66
aS'http://www.clarin.com/politica/hotel-Cristobal-Lopez-vista-Glaciar_0_1620437986.html'
p67
aS'http://www.clarin.com/politica/hotel-Cristobal-Lopez-vista-Glaciar_0_1620437986.html'
p68
aS'http://www.clarin.com/politica/hotel-Cristobal-Lopez-vista-Glaciar_0_1620437986.html#comentarios'
p69
aS'http://www.clarin.com/politica/hotel-Cristobal-Lopez-vista-Glaciar_0_1620437986.html#compartir'
p70
aS'http://www.clarin.com/sociedad/Yellow-Submarine-Fragata-Libertad-Liverpool_0_1621038009.html'
p71
aS'http://www.clarin.com/sociedad/Yellow-Submarine-Fragata-Libertad-Liverpool_0_1621038009.html'
p72
aS'http://www.clarin.com/sociedad/Yellow-Submarine-Fragata-Libertad-Liverpool_0_1621038009.html#comentarios'
p73
aS'http://www.clarin.com/sociedad/Yellow-Submarine-Fragata-Libertad-Liverpool_0_1621038009.html#compartir'
p74
aS'http://www.clarin.com/mundo/Ahora-Trump-Rusia-espiar-correos_0_1621038072.html'
p75
aS'http://www.clarin.com/mundo/Ahora-Trump-Rusia-espiar-correos_0_1621038072.html'
p76
aS'http://www.clarin.com/mundo/Ahora-Trump-Rusia-espiar-correos_0_1621038072.html#comentarios'
p77
aS'http://www.clarin.com/mundo/Ahora-Trump-Rusia-espiar-correos_0_1621038072.html#compartir'
p78
aS'http://www.clarin.com/policiales/pastillas-vuelven-Carlos-Nair-Justicia_0_1621038006.html'
p79
aS'http://www.clarin.com/policiales/pastillas-vuelven-Carlos-Nair-Justicia_0_1621038006.html'
p80
aS'http://www.clarin.com/policiales/pastillas-vuelven-Carlos-Nair-Justicia_0_1621038006.html#comentarios'
p81
aS'http://www.clarin.com/policiales/pastillas-vuelven-Carlos-Nair-Justicia_0_1621038006.html#compartir'
p82
aS'http://www.clarin.com/sociedad/compras-puerta_0_1621037970.html'
p83
aS'http://www.clarin.com/sociedad/compras-puerta_0_1621037970.html#comentarios'
p84
aS'http://www.clarin.com/sociedad/compras-puerta_0_1621037970.html#compartir'
p85
aS'http://www.clarin.com/politica/Macri-Tinelli-solas-Olivos-sellar_0_1621037953.html'
p86
aS'http://www.clarin.com/politica/Macri-Tinelli-solas-Olivos-sellar_0_1621037953.html'
p87
aS'http://www.clarin.com/politica/Macri-Tinelli-solas-Olivos-sellar_0_1621037953.html#comentarios'
p88
aS'http://www.clarin.com/politica/Macri-Tinelli-solas-Olivos-sellar_0_1621037953.html#compartir'
p89
aS'http://www.clarin.com/politica/Trolls-Center-Fakes-Bots-Macri-Tinelli_0_1621037954.html'
p90
aS'http://www.clarin.com/politica/Trolls-Center-Fakes-Bots-Macri-Tinelli_0_1621037954.html#comentarios'
p91
aS'http://www.clarin.com/politica/Trolls-Center-Fakes-Bots-Macri-Tinelli_0_1621037954.html#compartir'
p92
aS'http://www.clarin.com/politica/Trolls-Center-Fakes-Bots-Macri-Tinelli_0_1621037954.html'
p93
aS'http://www.clarin.com/politica/politica-via-Snapchat_0_1621038023.html'
p94
aS'http://www.clarin.com/politica/politica-via-Snapchat_0_1621038023.html#comentarios'
p95
aS'http://www.clarin.com/politica/politica-via-Snapchat_0_1621038023.html#compartir'
p96
aS'http://www.clarin.com/politica/politica-via-Snapchat_0_1621038023.html'
p97
aS'http://www.clarin.com/politica/Denuncian-Justicia-avanzar-investigacion-AMIA_0_1621038018.html'
p98
aS'http://www.clarin.com/politica/Denuncian-Justicia-avanzar-investigacion-AMIA_0_1621038018.html#comentarios'
p99
aS'http://www.clarin.com/politica/Denuncian-Justicia-avanzar-investigacion-AMIA_0_1621038018.html#compartir'
p100
aS'http://www.clarin.com/politica/Denuncian-Justicia-avanzar-investigacion-AMIA_0_1621038018.html'
p101
aS'http://www.clarin.com/politica/Cristina-acuso-Gobierno-policial-ANSES_0_1621037966.html'
p102
aS'http://www.clarin.com/politica/Cristina-acuso-Gobierno-policial-ANSES_0_1621037966.html#comentarios'
p103
aS'http://www.clarin.com/politica/Cristina-acuso-Gobierno-policial-ANSES_0_1621037966.html#compartir'
p104
aS'http://www.clarin.com/politica/Cristina-acuso-Gobierno-policial-ANSES_0_1621037966.html'
p105
aS'http://www.clarin.com/mundo/Francisco-Cracovia-Jornada-Mundial-Juventud_0_1621037937.html'
p106
aS'http://www.clarin.com/mundo/Francisco-Cracovia-Jornada-Mundial-Juventud_0_1621037937.html'
p107
aS'http://www.clarin.com/mundo/Francisco-Cracovia-Jornada-Mundial-Juventud_0_1621037937.html#comentarios'
p108
aS'http://www.clarin.com/mundo/Francisco-Cracovia-Jornada-Mundial-Juventud_0_1621037937.html#compartir'
p109
aS'http://www.clarin.com/especiales/Towle-secreto-confesion-liberar-inocente_0_1621037890.html'
p110
aS'http://www.clarin.com/especiales/Towle-secreto-confesion-liberar-inocente_0_1621037890.html'
p111
aS'http://www.clarin.com/especiales/Towle-secreto-confesion-liberar-inocente_0_1621037890.html#comentarios'
p112
aS'http://www.clarin.com/especiales/Towle-secreto-confesion-liberar-inocente_0_1621037890.html#compartir'
p113
aS'http://www.clarin.com/politica/CFK-directorio-Banco-Santa-Cruz_0_1621037931.html'
p114
aS'http://www.clarin.com/politica/CFK-directorio-Banco-Santa-Cruz_0_1621037931.html#comentarios'
p115
aS'http://www.clarin.com/politica/CFK-directorio-Banco-Santa-Cruz_0_1621037931.html#compartir'
p116
aS'http://www.clarin.com/politica/CFK-directorio-Banco-Santa-Cruz_0_1621037931.html'
p117
aS'http://www.clarin.com/politica/empleado-Aerolineas-denuncio-Campora-obligaba_0_1621037910.html'
p118
aS'http://www.clarin.com/politica/empleado-Aerolineas-denuncio-Campora-obligaba_0_1621037910.html#comentarios'
p119
aS'http://www.clarin.com/politica/empleado-Aerolineas-denuncio-Campora-obligaba_0_1621037910.html#compartir'
p120
aS'http://www.clarin.com/politica/empleado-Aerolineas-denuncio-Campora-obligaba_0_1621037910.html'
p121
aS'http://www.clarin.com/deportes/futbol/Angelici-Orion-jugador-Boca-analizaremos_0_1621038028.html'
p122
aS'http://www.clarin.com/deportes/futbol/Angelici-Orion-jugador-Boca-analizaremos_0_1621038028.html'
p123
aS'http://www.clarin.com/deportes/futbol/Angelici-Orion-jugador-Boca-analizaremos_0_1621038028.html#comentarios'
p124
aS'http://www.clarin.com/deportes/futbol/Angelici-Orion-jugador-Boca-analizaremos_0_1621038028.html#compartir'
p125
aS'http://www.clarin.com/policiales/Crimen-cazador-policias-acusados-homicidio_0_1621038030.html'
p126
aS'http://www.clarin.com/policiales/Crimen-cazador-policias-acusados-homicidio_0_1621038030.html'
p127
aS'http://www.clarin.com/policiales/Crimen-cazador-policias-acusados-homicidio_0_1621038030.html#comentarios'
p128
aS'http://www.clarin.com/policiales/Crimen-cazador-policias-acusados-homicidio_0_1621038030.html#compartir'
p129
aS'http://www.clarin.com/mundo/primeras-imagenes-autor-masacre-Japon_0_1621037978.html'
p130
aS'http://www.clarin.com/mundo/primeras-imagenes-autor-masacre-Japon_0_1621037978.html'
p131
aS'http://www.clarin.com/mundo/primeras-imagenes-autor-masacre-Japon_0_1621037978.html#comentarios'
p132
aS'http://www.clarin.com/mundo/primeras-imagenes-autor-masacre-Japon_0_1621037978.html#compartir'
p133
aS'http://www.clarin.com/ciudades/explosion-incendio-monoblock-Flores_0_1621037994.html'
p134
aS'http://www.clarin.com/ciudades/explosion-incendio-monoblock-Flores_0_1621037994.html'
p135
aS'http://www.clarin.com/ciudades/explosion-incendio-monoblock-Flores_0_1621037994.html#comentarios'
p136
aS'http://www.clarin.com/ciudades/explosion-incendio-monoblock-Flores_0_1621037994.html#compartir'
p137
aS'http://www.clarin.com/policiales/buscaban-trafico-kilos-cocaina-visitar_0_1621037949.html'
p138
aS'http://www.clarin.com/policiales/buscaban-trafico-kilos-cocaina-visitar_0_1621037949.html#comentarios'
p139
aS'http://www.clarin.com/policiales/buscaban-trafico-kilos-cocaina-visitar_0_1621037949.html#compartir'
p140
aS'http://www.clarin.com/policiales/buscaban-trafico-kilos-cocaina-visitar_0_1621037949.html'
p141
aS'http://www.clarin.com/policiales/contrabando-dolares-falsa-donacion-hospitales_0_1621037929.html'
p142
aS'http://www.clarin.com/policiales/contrabando-dolares-falsa-donacion-hospitales_0_1621037929.html#comentarios'
p143
aS'http://www.clarin.com/policiales/contrabando-dolares-falsa-donacion-hospitales_0_1621037929.html#compartir'
p144
aS'http://www.clarin.com/policiales/contrabando-dolares-falsa-donacion-hospitales_0_1621037929.html'
p145
aS'http://www.clarin.com/ieco/economia/tarifazo-compran-estufas-Chile-Aduna_0_1621038022.html'
p146
aS'http://www.clarin.com/ieco/economia/tarifazo-compran-estufas-Chile-Aduna_0_1621038022.html#comentarios'
p147
aS'http://www.clarin.com/ieco/economia/tarifazo-compran-estufas-Chile-Aduna_0_1621038022.html#compartir'
p148
aS'http://www.clarin.com/deautos/tecnologia/eficiente-kilometros-equivalente-litro-nafta_0_1621038012.html'
p149
aS'http://www.clarin.com/deautos/tecnologia/eficiente-kilometros-equivalente-litro-nafta_0_1621038012.html'
p150
aS'http://www.clarin.com/deautos/tecnologia/eficiente-kilometros-equivalente-litro-nafta_0_1621038012.html#comentarios'
p151
aS'http://www.clarin.com/deautos/tecnologia/eficiente-kilometros-equivalente-litro-nafta_0_1621038012.html#compartir'
p152
aS'http://www.clarin.com/policiales/Juliana-modelo-colombiana-pasara-carcel_0_1620438011.html'
p153
aS'http://www.clarin.com/policiales/Juliana-modelo-colombiana-pasara-carcel_0_1620438011.html#comentarios'
p154
aS'http://www.clarin.com/policiales/Juliana-modelo-colombiana-pasara-carcel_0_1620438011.html#compartir'
p155
aS'http://www.clarin.com/policiales/Juliana-modelo-colombiana-pasara-carcel_0_1620438011.html'
p156
aS'http://www.clarin.com/sociedad/Salven-Marina-Joyce-youtuber-insolita_0_1621037921.html'
p157
aS'http://www.clarin.com/sociedad/Salven-Marina-Joyce-youtuber-insolita_0_1621037921.html#comentarios'
p158
aS'http://www.clarin.com/sociedad/Salven-Marina-Joyce-youtuber-insolita_0_1621037921.html#compartir'
p159
aS'http://www.clarin.com/sociedad/Salven-Marina-Joyce-youtuber-insolita_0_1621037921.html'
p160
aS'http://www.clarin.comhttp://www.clarin.com/politica/panos-menores_0_1621037885.html'
p161
aS'http://www.clarin.comhttp://www.clarin.com/sociedad/respuesta-frente-reclamo-llevaba-espera_0_1620438143.html'
p162
aS'http://www.clarin.comhttp://www.clarin.com/politica/Gran-Hermano-gestacion_0_1621037886.html'
p163
aS'http://www.clarin.comhttp://www.clarin.com/deportes/basquet/Energia-debe-aprovecharse_0_1621037887.html'
p164
aS'http://www.clarin.com/extrashow/fama/Martin-Connor-integrante-Luthiers-infarto_0_1621038066.html'
p165
aS'http://www.clarin.com/extrashow/fama/Martin-Connor-integrante-Luthiers-infarto_0_1621038066.html'
p166
aS'http://www.clarin.com/extrashow/fama/Martin-Connor-integrante-Luthiers-infarto_0_1621038066.html'
p167
aS'http://www.clarin.com/extrashow/fama/Monica-Farro-Riquelme-goleador-cancha_0_1621038070.html'
p168
aS'http://www.clarin.com/extrashow/fama/Monica-Farro-Riquelme-goleador-cancha_0_1621038070.html'
p169
aS'http://www.clarin.com/extrashow/fama/Monica-Farro-Riquelme-goleador-cancha_0_1621038070.html'
p170
aS'http://www.clarin.com/extrashow/Alejandro-Dolina-indignado-personal-seguridad_0_1621038008.html'
p171
aS'http://www.clarin.com/extrashow/Alejandro-Dolina-indignado-personal-seguridad_0_1621038008.html'
p172
aS'http://www.clarin.com/extrashow/Alejandro-Dolina-indignado-personal-seguridad_0_1621038008.html'
p173
aS'http://www.clarin.com/extrashow/fama/insolito-Marcelo_Tinelli-se-fue-estudio-pleno-programa-ShowMatch_0_1621037939.html'
p174
aS'http://www.clarin.com/extrashow/fama/insolito-Marcelo_Tinelli-se-fue-estudio-pleno-programa-ShowMatch_0_1621037939.html'
p175
aS'http://www.clarin.com/extrashow/fama/insolito-Marcelo_Tinelli-se-fue-estudio-pleno-programa-ShowMatch_0_1621037939.html'
p176
aS'http://www.clarin.com/extrashow/fama/Jorge_Rial-sin-filtro-contra-Mauricio_Macri-Marcelo_Tinelli_0_1621037988.html'
p177
aS'http://www.clarin.com/extrashow/fama/Jorge_Rial-sin-filtro-contra-Mauricio_Macri-Marcelo_Tinelli_0_1621037988.html'
p178
aS'http://www.clarin.com/extrashow/fama/Jorge_Rial-sin-filtro-contra-Mauricio_Macri-Marcelo_Tinelli_0_1621037988.html'
p179
aS'http://www.clarin.com/extrashow/fama/Riquelme-Rial-Laurita_Fernandez-desmentida_0_1621037975.html'
p180
aS'http://www.clarin.com/extrashow/fama/Riquelme-Rial-Laurita_Fernandez-desmentida_0_1621037975.html'
p181
aS'http://www.clarin.com/extrashow/fama/Riquelme-Rial-Laurita_Fernandez-desmentida_0_1621037975.html'
p182
aS'http://www.clarin.com/ciudades/Aumento-Gobierno-mediodia-discusion-llevaria_0_1621037962.html'
p183
aS'http://www.clarin.com/ciudades/Aumento-Gobierno-mediodia-discusion-llevaria_0_1621037962.html#comentarios'
p184
aS'http://www.clarin.com/ciudades/Aumento-Gobierno-mediodia-discusion-llevaria_0_1621037962.html#compartir'
p185
aS'http://www.clarin.com/ciudades/aumento-subte-Metrovias-cuentas-orden_0_1621037965.html'
p186
aS'http://www.clarin.com/ciudades/Aumento-Gobierno-mediodia-discusion-llevaria_0_1621037962.html'
p187
aS'http://www.clarin.com/buena-vida/salud/Hepatitis-mitad-infectados-llaman-hacerse_0_1621037984.html'
p188
aS'http://www.clarin.com/buena-vida/salud/Hepatitis-mitad-infectados-llaman-hacerse_0_1621037984.html#comentarios'
p189
aS'http://www.clarin.com/buena-vida/salud/Hepatitis-mitad-infectados-llaman-hacerse_0_1621037984.html#compartir'
p190
aS'http://www.clarin.com/buena-vida/salud/Hepatitis-mitad-infectados-llaman-hacerse_0_1621037984.html'
p191
aS'http://www.clarin.com/next/entretenimiento/Portatil-cartuchos-proxima-consola-Nintendo_0_1621037933.html'
p192
aS'http://www.clarin.com/next/entretenimiento/Portatil-cartuchos-proxima-consola-Nintendo_0_1621037933.html#comentarios'
p193
aS'http://www.clarin.com/next/entretenimiento/Portatil-cartuchos-proxima-consola-Nintendo_0_1621037933.html#compartir'
p194
aS'http://www.clarin.com/next/entretenimiento/Portatil-cartuchos-proxima-consola-Nintendo_0_1621037933.html'
p195
aS'http://www.clarin.com/sociedad/Devuelven-Dali-robada-museo-Holanda_0_1621037980.html'
p196
aS'http://www.clarin.com/sociedad/Devuelven-Dali-robada-museo-Holanda_0_1621037980.html'
p197
aS'http://www.clarin.com/sociedad/Devuelven-Dali-robada-museo-Holanda_0_1621037980.html#comentarios'
p198
aS'http://www.clarin.com/sociedad/Devuelven-Dali-robada-museo-Holanda_0_1621037980.html#compartir'
p199
aS'http://www.clarin.com/next/apps/Twitter-habilita-modo-nocturno-Android_0_1621037944.html'
p200
aS'http://www.clarin.com/next/apps/Twitter-habilita-modo-nocturno-Android_0_1621037944.html#comentarios'
p201
aS'http://www.clarin.com/next/apps/Twitter-habilita-modo-nocturno-Android_0_1621037944.html#compartir'
p202
aS'http://www.clarin.com/next/apps/Twitter-habilita-modo-nocturno-Android_0_1621037944.html'
p203
aS'http://www.clarin.com/next/apps/WhatsApp-agranda-gigantes-sorpresa-olimpica_0_1621037973.html'
p204
aS'http://www.clarin.com/next/apps/WhatsApp-agranda-gigantes-sorpresa-olimpica_0_1621037973.html#comentarios'
p205
aS'http://www.clarin.com/next/apps/WhatsApp-agranda-gigantes-sorpresa-olimpica_0_1621037973.html#compartir'
p206
aS'http://www.clarin.com/next/apps/WhatsApp-agranda-gigantes-sorpresa-olimpica_0_1621037973.html'
p207
aS'http://www.clarin.com/sociedad/sopa-consejos-expertos-plato-invierno_0_1621037960.html'
p208
aS'http://www.clarin.com/sociedad/sopa-consejos-expertos-plato-invierno_0_1621037960.html'
p209
aS'http://www.clarin.com/sociedad/sopa-consejos-expertos-plato-invierno_0_1621037960.html#comentarios'
p210
aS'http://www.clarin.com/sociedad/sopa-consejos-expertos-plato-invierno_0_1621037960.html#compartir'
p211
aS'http://www.clarin.com/politica/Levantan-aeropuertos-funcionaran-normalmente-manana_0_1621038062.html'
p212
aS'http://www.clarin.com/politica/Levantan-aeropuertos-funcionaran-normalmente-manana_0_1621038062.html'
p213
aS'http://www.clarin.com/politica/Levantan-aeropuertos-funcionaran-normalmente-manana_0_1621038062.html#comentarios'
p214
aS'http://www.clarin.com/politica/Levantan-aeropuertos-funcionaran-normalmente-manana_0_1621038062.html#compartir'
p215
aS'http://www.clarin.com/sociedad/sacaban-vacas-camion-despues-faenarlas_0_1621037925.html'
p216
aS'http://www.clarin.com/sociedad/sacaban-vacas-camion-despues-faenarlas_0_1621037925.html'
p217
aS'http://www.clarin.com/sociedad/sacaban-vacas-camion-despues-faenarlas_0_1621037925.html#comentarios'
p218
aS'http://www.clarin.com/sociedad/sacaban-vacas-camion-despues-faenarlas_0_1621037925.html#compartir'
p219
aS'http://www.clarin.com/ciudades/paro-manana-funcionara-tren-Sarmiento_0_1621037969.html'
p220
aS'http://www.clarin.com/ciudades/paro-manana-funcionara-tren-Sarmiento_0_1621037969.html#comentarios'
p221
aS'http://www.clarin.com/ciudades/paro-manana-funcionara-tren-Sarmiento_0_1621037969.html#compartir'
p222
aS'http://www.clarin.com/ciudades/paro-manana-funcionara-tren-Sarmiento_0_1621037969.html'
p223
aS'http://www.clarin.com/politica/intendente-conto-Twitter-abrieron-sospechas_0_1621037920.html'
p224
aS'http://www.clarin.com/politica/intendente-conto-Twitter-abrieron-sospechas_0_1621037920.html#comentarios'
p225
aS'http://www.clarin.com/politica/intendente-conto-Twitter-abrieron-sospechas_0_1621037920.html#compartir'
p226
aS'http://www.clarin.com/politica/intendente-conto-Twitter-abrieron-sospechas_0_1621037920.html'
p227
aS'http://www.clarin.com/sociedad/cosas-tenes-saber-Sol-Chicos_0_1621038002.html'
p228
aS'http://www.clarin.com/sociedad/cosas-tenes-saber-Sol-Chicos_0_1621038002.html'
p229
aS'http://www.clarin.com/sociedad/cosas-tenes-saber-Sol-Chicos_0_1621038002.html#comentarios'
p230
aS'http://www.clarin.com/sociedad/cosas-tenes-saber-Sol-Chicos_0_1621038002.html#compartir'
p231
aS'http://www.clarin.com/extrashow/musica/vencedores-vencidos_0_1620438091.html'
p232
aS'http://www.clarin.com/extrashow/musica/vencedores-vencidos_0_1620438091.html'
p233
aS'http://www.clarin.com/extrashow/musica/vencedores-vencidos_0_1620438091.html#comentarios'
p234
aS'http://www.clarin.com/extrashow/musica/vencedores-vencidos_0_1620438091.html#compartir'
p235
aS'http://www.clarin.com/sociedad/australiano-gano-paradisiaco-resort-online_0_1621037926.html'
p236
aS'http://www.clarin.com/sociedad/australiano-gano-paradisiaco-resort-online_0_1621037926.html#comentarios'
p237
aS'http://www.clarin.com/sociedad/australiano-gano-paradisiaco-resort-online_0_1621037926.html#compartir'
p238
aS'http://www.clarin.com/sociedad/australiano-gano-paradisiaco-resort-online_0_1621037926.html'
p239
aS'http://www.clarin.com/buena-vida/psico/amores-perros-poder-sentir_0_1620438040.html'
p240
aS'http://www.clarin.com/buena-vida/psico/amores-perros-poder-sentir_0_1620438040.html#comentarios'
p241
aS'http://www.clarin.com/buena-vida/psico/amores-perros-poder-sentir_0_1620438040.html#compartir'
p242
aS'http://www.clarin.com/buena-vida/psico/amores-perros-poder-sentir_0_1620438040.html'
p243
aS'http://www.clarin.com/entremujeres/hogar-y-familia/embarazo/mitos-pastillas-anticonceptivas_0_1619238104.html'
p244
aS'http://www.clarin.com/entremujeres/hogar-y-familia/embarazo/mitos-pastillas-anticonceptivas_0_1619238104.html'
p245
aS'http://www.clarin.com/entremujeres/hogar-y-familia/embarazo/mitos-pastillas-anticonceptivas_0_1619238104.html#comentarios'
p246
aS'http://www.clarin.com/entremujeres/hogar-y-familia/embarazo/mitos-pastillas-anticonceptivas_0_1619238104.html#compartir'
p247
aS'http://www.clarin.com/buena-vida/fitness/entrenar_0_1616838394.html'
p248
aS'http://www.clarin.com/buena-vida/fitness/entrenar_0_1616838394.html'
p249
aS'http://www.clarin.com/buena-vida/fitness/entrenar_0_1616838394.html#comentarios'
p250
aS'http://www.clarin.com/buena-vida/fitness/entrenar_0_1616838394.html#compartir'
p251
aS'http://www.clarin.com/todoviajes/destinos/america-del-norte/Museo-Bellas-Artes-valioso-Boston_0_1620438033.html'
p252
aS'http://www.clarin.com/todoviajes/destinos/america-del-norte/Museo-Bellas-Artes-valioso-Boston_0_1620438033.html'
p253
aS'http://www.clarin.com/todoviajes/destinos/america-del-norte/Museo-Bellas-Artes-valioso-Boston_0_1620438033.html#comentarios'
p254
aS'http://www.clarin.com/todoviajes/destinos/america-del-norte/Museo-Bellas-Artes-valioso-Boston_0_1620438033.html#compartir'
p255
aS'http://www.clarin.com/todoviajes/destinos/propuestas-turistas-Madre-ciudades-Argentina_0_1620438051.html'
p256
aS'http://www.clarin.com/todoviajes/destinos/propuestas-turistas-Madre-ciudades-Argentina_0_1620438051.html'
p257
aS'http://www.clarin.com/todoviajes/destinos/propuestas-turistas-Madre-ciudades-Argentina_0_1620438051.html#comentarios'
p258
aS'http://www.clarin.com/todoviajes/destinos/propuestas-turistas-Madre-ciudades-Argentina_0_1620438051.html#compartir'
p259
aS'http://www.clarin.com/sociedad/Gobierno-avanza-acuerdo-congelar-medicamentos_0_1621037901.html'
p260
aS'http://www.clarin.com/sociedad/Gobierno-avanza-acuerdo-congelar-medicamentos_0_1621037901.html#comentarios'
p261
aS'http://www.clarin.com/sociedad/Gobierno-avanza-acuerdo-congelar-medicamentos_0_1621037901.html#compartir'
p262
aS'http://www.clarin.com/sociedad/Gobierno-avanza-acuerdo-congelar-medicamentos_0_1621037901.html'
p263
aS'http://www.clarin.com/politica/Encuesta-quiere-Cristina-termine-presa_0_1621037907.html'
p264
aS'http://www.clarin.com/politica/Encuesta-quiere-Cristina-termine-presa_0_1621037907.html#comentarios'
p265
aS'http://www.clarin.com/politica/Encuesta-quiere-Cristina-termine-presa_0_1621037907.html#compartir'
p266
aS'http://www.clarin.com/politica/Encuesta-quiere-Cristina-termine-presa_0_1621037907.html'
p267
aS'http://www.clarin.com/politica/Binner-desmayo-Rural-atendido-SAME_0_1621037990.html'
p268
aS'http://www.clarin.com/politica/Binner-desmayo-Rural-atendido-SAME_0_1621037990.html#comentarios'
p269
aS'http://www.clarin.com/politica/Binner-desmayo-Rural-atendido-SAME_0_1621037990.html#compartir'
p270
aS'http://www.clarin.com/politica/Binner-desmayo-Rural-atendido-SAME_0_1621037990.html'
p271
aS'http://www.clarin.com/politica/reabrir-denuncia-diputado-Rafecas-amenazas_0_1621037927.html'
p272
aS'http://www.clarin.com/politica/reabrir-denuncia-diputado-Rafecas-amenazas_0_1621037927.html#comentarios'
p273
aS'http://www.clarin.com/politica/reabrir-denuncia-diputado-Rafecas-amenazas_0_1621037927.html#compartir'
p274
aS'http://www.clarin.com/politica/reabrir-denuncia-diputado-Rafecas-amenazas_0_1621037927.html'
p275
aS'http://www.clarin.com/politica/Rechazan-cautelar-audiencia-publica-Provincia_0_1621037916.html'
p276
aS'http://www.clarin.com/politica/Rechazan-cautelar-audiencia-publica-Provincia_0_1621037916.html#comentarios'
p277
aS'http://www.clarin.com/politica/Rechazan-cautelar-audiencia-publica-Provincia_0_1621037916.html#compartir'
p278
aS'http://www.clarin.com/politica/Rechazan-cautelar-audiencia-publica-Provincia_0_1621037916.html'
p279
aS'http://www.clarin.com/mundo/nominacion-Hillary-Trump-candidata-desastre_0_1621037971.html'
p280
aS'http://www.clarin.com/mundo/nominacion-Hillary-Trump-candidata-desastre_0_1621037971.html'
p281
aS'http://www.clarin.com/mundo/nominacion-Hillary-Trump-candidata-desastre_0_1621037971.html#comentarios'
p282
aS'http://www.clarin.com/mundo/nominacion-Hillary-Trump-candidata-desastre_0_1621037971.html#compartir'
p283
aS'http://www.clarin.com/next/entretenimiento/Nicolas-Maduro-Pokemon-Go-Fomenta_0_1621037919.html'
p284
aS'http://www.clarin.com/next/entretenimiento/Nicolas-Maduro-Pokemon-Go-Fomenta_0_1621037919.html#comentarios'
p285
aS'http://www.clarin.com/next/entretenimiento/Nicolas-Maduro-Pokemon-Go-Fomenta_0_1621037919.html#compartir'
p286
aS'http://www.clarin.com/next/entretenimiento/Nicolas-Maduro-Pokemon-Go-Fomenta_0_1621037919.html'
p287
aS'http://www.clarin.com/politica/Derechos-entidad-presion-Macri-Venezuela_0_1621037992.html'
p288
aS'http://www.clarin.com/politica/Derechos-entidad-presion-Macri-Venezuela_0_1621037992.html#comentarios'
p289
aS'http://www.clarin.com/politica/Derechos-entidad-presion-Macri-Venezuela_0_1621037992.html#compartir'
p290
aS'http://www.clarin.com/politica/Derechos-entidad-presion-Macri-Venezuela_0_1621037992.html'
p291
aS'http://www.clarin.com/mundo/brutal-atentado-ISIS-deja-muertos_0_1621037899.html'
p292
aS'http://www.clarin.com/mundo/brutal-atentado-ISIS-deja-muertos_0_1621037899.html'
p293
aS'http://www.clarin.com/mundo/brutal-atentado-ISIS-deja-muertos_0_1621037899.html#comentarios'
p294
aS'http://www.clarin.com/mundo/brutal-atentado-ISIS-deja-muertos_0_1621037899.html#compartir'
p295
aS'http://www.clarin.com/ieco/economia/acentuo-caida-actividad-industrial_0_1621038007.html'
p296
aS'http://www.clarin.com/ieco/economia/acentuo-caida-actividad-industrial_0_1621038007.html'
p297
aS'http://www.clarin.com/ieco/economia/acentuo-caida-actividad-industrial_0_1621038007.html#comentarios'
p298
aS'http://www.clarin.com/ieco/economia/acentuo-caida-actividad-industrial_0_1621038007.html#compartir'
p299
aS'http://www.clarin.com/mundo/Parlamento-catalan-aprueba-unilateralmente-secesion_0_1621037903.html'
p300
aS'http://www.clarin.com/mundo/Parlamento-catalan-aprueba-unilateralmente-secesion_0_1621037903.html#comentarios'
p301
aS'http://www.clarin.com/mundo/Parlamento-catalan-aprueba-unilateralmente-secesion_0_1621037903.html#compartir'
p302
aS'http://www.clarin.com/ieco/economia/Toros-campeones-precios-record-Rural_0_1621038038.html'
p303
aS'http://www.clarin.com/ieco/economia/Toros-campeones-precios-record-Rural_0_1621038038.html'
p304
aS'http://www.clarin.com/ieco/economia/Toros-campeones-precios-record-Rural_0_1621038038.html#comentarios'
p305
aS'http://www.clarin.com/ieco/economia/Toros-campeones-precios-record-Rural_0_1621038038.html#compartir'
p306
aS'http://www.clarin.com/ieco/textiles-alerta-consumo-importaciones_0_1621037941.html'
p307
aS'http://www.clarin.com/ieco/textiles-alerta-consumo-importaciones_0_1621037941.html#comentarios'
p308
aS'http://www.clarin.com/ieco/textiles-alerta-consumo-importaciones_0_1621037941.html#compartir'
p309
aS'http://www.clarin.com/ieco/textiles-alerta-consumo-importaciones_0_1621037941.html'
p310
aS'http://www.clarin.com/ieco/CIARA-permitira-desactivar-situacion-psicosis_0_1621037934.html'
p311
aS'http://www.clarin.com/ieco/CIARA-permitira-desactivar-situacion-psicosis_0_1621037934.html#comentarios'
p312
aS'http://www.clarin.com/ieco/CIARA-permitira-desactivar-situacion-psicosis_0_1621037934.html#compartir'
p313
aS'http://www.clarin.com/ieco/CIARA-permitira-desactivar-situacion-psicosis_0_1621037934.html'
p314
aS'http://www.clarin.com/deportes/basquet/Camino-Rio-cierre-preparacion-rivales_0_1620437953.html'
p315
aS'http://www.clarin.com/deportes/basquet/Camino-Rio-cierre-preparacion-rivales_0_1620437953.html'
p316
aS'http://www.clarin.com/deportes/basquet/Camino-Rio-cierre-preparacion-rivales_0_1620437953.html#comentarios'
p317
aS'http://www.clarin.com/deportes/basquet/Camino-Rio-cierre-preparacion-rivales_0_1620437953.html#compartir'
p318
aS'http://www.clarin.com/deportes/futbol-internacional/Aguero-lupa-Guardiola-condicion-fisica_0_1621038013.html'
p319
aS'http://www.clarin.com/deportes/futbol-internacional/Aguero-lupa-Guardiola-condicion-fisica_0_1621038013.html'
p320
aS'http://www.clarin.com/deportes/futbol-internacional/Aguero-lupa-Guardiola-condicion-fisica_0_1621038013.html#comentarios'
p321
aS'http://www.clarin.com/deportes/futbol-internacional/Aguero-lupa-Guardiola-condicion-fisica_0_1621038013.html#compartir'
p322
aS'http://www.clarin.com/deportes/futbol/Gobierno-redujo-oferta-Futbol_0_1620438114.html'
p323
aS'http://www.clarin.com/deportes/futbol/Gobierno-redujo-oferta-Futbol_0_1620438114.html#comentarios'
p324
aS'http://www.clarin.com/deportes/futbol/Gobierno-redujo-oferta-Futbol_0_1620438114.html#compartir'
p325
aS'http://www.clarin.com/deportes/futbol/Gobierno-redujo-oferta-Futbol_0_1620438114.html'
p326
aS'http://www.clarin.com/deportes/futbol/violencia-Rosario-Newells-suspender-partidos_0_1619838066.html'
p327
aS'http://www.clarin.com/deportes/futbol/violencia-Rosario-Newells-suspender-partidos_0_1619838066.html#comentarios'
p328
aS'http://www.clarin.com/deportes/futbol/violencia-Rosario-Newells-suspender-partidos_0_1619838066.html#compartir'
p329
aS'http://www.clarin.com/deportes/futbol/violencia-Rosario-Newells-suspender-partidos_0_1619838066.html'
p330
aS'http://www.clarin.com/deportes/futbol/Mercado-Coloccini-Lorenzo-Suarez-Belgrano_0_1608439307.html'
p331
aS'http://www.clarin.com/deportes/futbol/Mercado-Coloccini-Lorenzo-Suarez-Belgrano_0_1608439307.html'
p332
aS'http://www.clarin.com/deportes/futbol/Mercado-Coloccini-Lorenzo-Suarez-Belgrano_0_1608439307.html#comentarios'
p333
aS'http://www.clarin.com/deportes/futbol/Mercado-Coloccini-Lorenzo-Suarez-Belgrano_0_1608439307.html#compartir'
p334
aS'http://www.clarin.com/deportes/futbol/boca-juniors/Tevez-critico-dirigencia-Boca-quiera_0_1621037998.html'
p335
aS'http://www.clarin.com/deportes/futbol/boca-juniors/Tevez-critico-dirigencia-Boca-quiera_0_1621037998.html'
p336
aS'http://www.clarin.com/deportes/futbol/boca-juniors/Tevez-critico-dirigencia-Boca-quiera_0_1621037998.html#comentarios'
p337
aS'http://www.clarin.com/deportes/futbol/boca-juniors/Tevez-critico-dirigencia-Boca-quiera_0_1621037998.html#compartir'
p338
aS'http://www.clarin.com/deportes/futbol-internacional/Mascherano-acordo-renovacion-Barcelona_0_1621037908.html'
p339
aS'http://www.clarin.com/deportes/futbol-internacional/Mascherano-acordo-renovacion-Barcelona_0_1621037908.html#comentarios'
p340
aS'http://www.clarin.com/deportes/futbol-internacional/Mascherano-acordo-renovacion-Barcelona_0_1621037908.html#compartir'
p341
aS'http://www.clarin.com/deportes/futbol-internacional/Mascherano-acordo-renovacion-Barcelona_0_1621037908.html'
p342
aS'http://www.clarin.com/deportes/futbol-internacional/argentinos-candidatos-mejor-temporada-Europa_0_1621037940.html'
p343
aS'http://www.clarin.com/deportes/futbol-internacional/argentinos-candidatos-mejor-temporada-Europa_0_1621037940.html'
p344
aS'http://www.clarin.com/deportes/futbol-internacional/argentinos-candidatos-mejor-temporada-Europa_0_1621037940.html#comentarios'
p345
aS'http://www.clarin.com/deportes/futbol-internacional/argentinos-candidatos-mejor-temporada-Europa_0_1621037940.html#compartir'
p346
aS'http://www.clarin.com/deportes/Mora-Copa-Argentina-joyita-queremos_0_1620438139.html'
p347
aS'http://www.clarin.com/deportes/Mora-Copa-Argentina-joyita-queremos_0_1620438139.html#comentarios'
p348
aS'http://www.clarin.com/deportes/Mora-Copa-Argentina-joyita-queremos_0_1620438139.html#compartir'
p349
aS'http://www.clarin.com/deportes/Mora-Copa-Argentina-joyita-queremos_0_1620438139.html'
p350
aS'http://www.clarin.com/deportes/futbol/river-plate/River-llega-afilado-Copa-Argentina_0_1621037957.html'
p351
aS'http://www.clarin.com/deportes/futbol/river-plate/River-llega-afilado-Copa-Argentina_0_1621037957.html#comentarios'
p352
aS'http://www.clarin.com/deportes/futbol/river-plate/River-llega-afilado-Copa-Argentina_0_1621037957.html#compartir'
p353
aS'http://www.clarin.com/deportes/futbol/river-plate/River-llega-afilado-Copa-Argentina_0_1621037957.html'
p354
aS'http://www.clarin.com/deportes/futbol/clubes-Nacional-amenazan-comenzar-torneo_0_1619838163.html'
p355
aS'http://www.clarin.com/deportes/futbol/clubes-Nacional-amenazan-comenzar-torneo_0_1619838163.html#comentarios'
p356
aS'http://www.clarin.com/deportes/futbol/clubes-Nacional-amenazan-comenzar-torneo_0_1619838163.html#compartir'
p357
aS'http://www.clarin.com/deportes/futbol/clubes-Nacional-amenazan-comenzar-torneo_0_1619838163.html'
p358
aS'http://www.clarin.com/deportes/Bielsa-dijo-dirigir-Seleccion_0_1621037896.html'
p359
aS'http://www.clarin.com/deportes/Bielsa-dijo-dirigir-Seleccion_0_1621037896.html'
p360
aS'http://www.clarin.com/deportes/Bielsa-dijo-dirigir-Seleccion_0_1621037896.html#comentarios'
p361
aS'http://www.clarin.com/deportes/Bielsa-dijo-dirigir-Seleccion_0_1621037896.html#compartir'
p362
aS'http://www.clarin.com/deportes/futbol-internacional/hinchas-Juventus-ovacionaron-Higuain-Turin_0_1621037900.html'
p363
aS'http://www.clarin.com/deportes/futbol-internacional/hinchas-Juventus-ovacionaron-Higuain-Turin_0_1621037900.html#comentarios'
p364
aS'http://www.clarin.com/deportes/futbol-internacional/hinchas-Juventus-ovacionaron-Higuain-Turin_0_1621037900.html#compartir'
p365
aS'http://www.clarin.com/deportes/futbol-internacional/hinchas-Juventus-ovacionaron-Higuain-Turin_0_1621037900.html'
p366
aS'http://www.clarin.com/deportes/futbol-internacional/presidente-Napoli-dijo-Higuain-traicion_0_1621037938.html'
p367
aS'http://www.clarin.com/deportes/futbol-internacional/presidente-Napoli-dijo-Higuain-traicion_0_1621037938.html#comentarios'
p368
aS'http://www.clarin.com/deportes/futbol-internacional/presidente-Napoli-dijo-Higuain-traicion_0_1621037938.html#compartir'
p369
aS'http://www.clarin.com/deportes/futbol-internacional/presidente-Napoli-dijo-Higuain-traicion_0_1621037938.html'
p370
aS'http://www.clarin.com/extrashow/fama/insolito-Marcelo_Tinelli-se-fue-estudio-pleno-programa-ShowMatch_0_1621037939.html'
p371
aS'http://www.clarin.com/sociedad/Salven-Marina-Joyce-youtuber-insolita_0_1621037921.html'
p372
aS'http://www.clarin.com/extrashow/Alejandro-Dolina-indignado-personal-seguridad_0_1621038008.html'
p373
aS'http://www.clarin.com/sociedad/escracharon-acosar-chica-tren-victima_0_1621037972.html'
p374
aS'http://www.clarin.com/extrashow/fama/Riquelme-Rial-Laurita_Fernandez-desmentida_0_1621037975.html'
p375
aS'http://www.clarin.com/entremujeres/pareja-y-sexo/sexo/puede-tener-orgasmo-estimulacion-genital_0_1621037935.html'
p376
aS'http://www.clarin.com/entremujeres/pareja-y-sexo/sexo/puede-tener-orgasmo-estimulacion-genital_0_1621037935.html'
p377
aS'http://www.clarin.com/entremujeres/pareja-y-sexo/sexo/puede-tener-orgasmo-estimulacion-genital_0_1621037935.html'
p378
aS'http://www.clarin.com/entremujeres/vida-sana/bienestar/reflexologia-sirve_0_1619838091.html'
p379
aS'http://www.clarin.com/entremujeres/vida-sana/bienestar/reflexologia-sirve_0_1619838091.html'
p380
aS'http://www.clarin.com/entremujeres/vida-sana/bienestar/reflexologia-sirve_0_1619838091.html'
p381
aS'http://www.clarin.com/entremujeres/hogar-y-familia/embarazo/nacimiento_parto_embarazo_cesarea_0_1588641246.html'
p382
aS'http://www.clarin.com/entremujeres/hogar-y-familia/embarazo/nacimiento_parto_embarazo_cesarea_0_1588641246.html'
p383
aS'http://www.clarin.com/entremujeres/hogar-y-familia/embarazo/nacimiento_parto_embarazo_cesarea_0_1588641246.html'
p384
aS'http://www.clarin.com/buena-vida/sexo/sirve-famoso-alargamiento-pene_0_1620437984.html'
p385
aS'http://www.clarin.com/buena-vida/sexo/sirve-famoso-alargamiento-pene_0_1620437984.html'
p386
aS'http://www.clarin.com/buena-vida/sexo/sirve-famoso-alargamiento-pene_0_1620437984.html'
p387
aS'http://www.clarin.com/buena-vida/fitness/entrenar_0_1616838394.html'
p388
aS'http://www.clarin.com/buena-vida/fitness/entrenar_0_1616838394.html'
p389
aS'http://www.clarin.com/buena-vida/fitness/entrenar_0_1616838394.html'
p390
aS'http://www.clarin.comhttp://www.clarin.com/cultura/libros-leer-guia-exitoso-booktuber_0_1616238502.html'
p391
aS'http://www.clarin.comhttp://www.clarin.com/cultura/libros-leer-guia-exitoso-booktuber_0_1616238502.html'
p392
aS'http://www.clarin.comhttp://www.clarin.com/cultura/libros-leer-guia-exitoso-booktuber_0_1616238502.html'
p393
aS'http://www.clarin.comhttp://www.clarin.com/br/Buenos-aires-maos-vaca_0_1618038351.html'
p394
aS'http://www.clarin.comhttp://www.clarin.com/br/Buenos-aires-maos-vaca_0_1618038351.html'
p395
aS'http://www.clarin.comhttp://www.clarin.com/br/Buenos-aires-maos-vaca_0_1618038351.html'
p396
aS'http://www.clarin.com/arq/construccion/sumar-aislacion-paredes_0_1620438048.html'
p397
aS'http://www.clarin.com/arq/construccion/sumar-aislacion-paredes_0_1620438048.html'
p398
aS'http://www.clarin.com/arq/construccion/sumar-aislacion-paredes_0_1620438048.html'
p399
a.